
main:     file format elf32-tradlittlemips


Disassembly of section .text:

a0800200 <_start>:
a0800200:	27bdffe0 	addiu	sp,sp,-32
a0800204:	afbf001c 	sw	ra,28(sp)
a0800208:	afbe0018 	sw	s8,24(sp)
a080020c:	03a0f021 	move	s8,sp
a0800210:	3c02a080 	lui	v0,0xa080
a0800214:	24423f90 	addiu	v0,v0,16272
a0800218:	afc20014 	sw	v0,20(s8)
a080021c:	3c028001 	lui	v0,0x8001
a0800220:	34421100 	ori	v0,v0,0x1100
a0800224:	afc20010 	sw	v0,16(s8)
a0800228:	8fc20010 	lw	v0,16(s8)
a080022c:	8fc40014 	lw	a0,20(s8)
a0800230:	0040f809 	jalr	v0
a0800234:	00000000 	nop
a0800238:	0c2000ac 	jal	a08002b0 <asm_start>
a080023c:	00000000 	nop
a0800240:	0c2006d0 	jal	a0801b40 <init_exception>
a0800244:	00000000 	nop
a0800248:	3c02a080 	lui	v0,0xa080
a080024c:	24443f9c 	addiu	a0,v0,16284
a0800250:	0c200d69 	jal	a08035a4 <printk>
a0800254:	00000000 	nop
a0800258:	0c2006ec 	jal	a0801bb0 <init_syscall>
a080025c:	00000000 	nop
a0800260:	3c02a080 	lui	v0,0xa080
a0800264:	24443fd8 	addiu	a0,v0,16344
a0800268:	0c200d69 	jal	a08035a4 <printk>
a080026c:	00000000 	nop
a0800270:	0c20033c 	jal	a0800cf0 <init_pcb>
a0800274:	00000000 	nop
a0800278:	3c02a080 	lui	v0,0xa080
a080027c:	24444008 	addiu	a0,v0,16392
a0800280:	0c200d69 	jal	a08035a4 <printk>
a0800284:	00000000 	nop
a0800288:	0c200265 	jal	a0800994 <init_screen>
a080028c:	00000000 	nop
a0800290:	3c02a080 	lui	v0,0xa080
a0800294:	24444030 	addiu	a0,v0,16432
a0800298:	0c200d69 	jal	a08035a4 <printk>
a080029c:	00000000 	nop
a08002a0:	0c2000be 	jal	a08002f8 <enable_interrupt>
a08002a4:	00000000 	nop
a08002a8:	082000aa 	j	a08002a8 <_start+0xa8>
a08002ac:	00000000 	nop

a08002b0 <asm_start>:
a08002b0:	40806000 	mtc0	zero,c0_sr
a08002b4:	00000000 	nop
a08002b8:	40809000 	mtc0	zero,c0_watchlo
a08002bc:	00000000 	nop
a08002c0:	40809800 	mtc0	zero,c0_watchhi
a08002c4:	00000000 	nop
a08002c8:	40088000 	mfc0	t0,c0_config
a08002cc:	2401fff8 	li	at,-8
a08002d0:	01014024 	and	t0,t0,at
a08002d4:	35080002 	ori	t0,t0,0x2
a08002d8:	40888000 	mtc0	t0,c0_config
a08002dc:	03e00008 	jr	ra
a08002e0:	00000000 	nop

a08002e4 <reset_CP0_status>:
a08002e4:	3c1a3000 	lui	k0,0x3000
a08002e8:	375aff03 	ori	k0,k0,0xff03
a08002ec:	409a6000 	mtc0	k0,c0_sr
a08002f0:	03e00008 	jr	ra
a08002f4:	00000000 	nop

a08002f8 <enable_interrupt>:
a08002f8:	40804800 	mtc0	zero,c0_count
a08002fc:	3c1b0002 	lui	k1,0x2
a0800300:	377b49f0 	ori	k1,k1,0x49f0
a0800304:	409b5800 	mtc0	k1,c0_compare
a0800308:	3c1aa080 	lui	k0,0xa080
a080030c:	275a3950 	addiu	k0,k0,14672
a0800310:	409a7000 	mtc0	k0,c0_epc
a0800314:	42000018 	eret
a0800318:	00000000 	nop

a080031c <set_COMPARE_slice>:
a080031c:	40804800 	mtc0	zero,c0_count
a0800320:	3c1b0002 	lui	k1,0x2
a0800324:	377b49f0 	ori	k1,k1,0x49f0
a0800328:	409b5800 	mtc0	k1,c0_compare
a080032c:	03e00008 	jr	ra
a0800330:	00000000 	nop

a0800334 <open_int>:
a0800334:	40096000 	mfc0	t1,c0_sr
a0800338:	2401fffd 	li	at,-3
a080033c:	01214824 	and	t1,t1,at
a0800340:	40896000 	mtc0	t1,c0_sr
a0800344:	03e00008 	jr	ra
a0800348:	00000000 	nop

a080034c <close_int>:
a080034c:	40086000 	mfc0	t0,c0_sr
a0800350:	00000000 	nop
a0800354:	35080002 	ori	t0,t0,0x2
a0800358:	40886000 	mtc0	t0,c0_sr
a080035c:	03e00008 	jr	ra
a0800360:	00000000 	nop

a0800364 <do_scheduler>:
a0800364:	3c1aa080 	lui	k0,0xa080
a0800368:	8f5a4618 	lw	k0,17944(k0)
a080036c:	275a0000 	addiu	k0,k0,0
a0800370:	af410004 	sw	at,4(k0)
a0800374:	af420008 	sw	v0,8(k0)
a0800378:	af43000c 	sw	v1,12(k0)
a080037c:	af440010 	sw	a0,16(k0)
a0800380:	af450014 	sw	a1,20(k0)
a0800384:	af460018 	sw	a2,24(k0)
a0800388:	af47001c 	sw	a3,28(k0)
a080038c:	af480020 	sw	t0,32(k0)
a0800390:	af490024 	sw	t1,36(k0)
a0800394:	af4a0028 	sw	t2,40(k0)
a0800398:	af4b002c 	sw	t3,44(k0)
a080039c:	af4c0030 	sw	t4,48(k0)
a08003a0:	af4d0034 	sw	t5,52(k0)
a08003a4:	af4e0038 	sw	t6,56(k0)
a08003a8:	af4f003c 	sw	t7,60(k0)
a08003ac:	af500040 	sw	s0,64(k0)
a08003b0:	af510044 	sw	s1,68(k0)
a08003b4:	af520048 	sw	s2,72(k0)
a08003b8:	af53004c 	sw	s3,76(k0)
a08003bc:	af540050 	sw	s4,80(k0)
a08003c0:	af550054 	sw	s5,84(k0)
a08003c4:	af560058 	sw	s6,88(k0)
a08003c8:	af57005c 	sw	s7,92(k0)
a08003cc:	af580060 	sw	t8,96(k0)
a08003d0:	af590064 	sw	t9,100(k0)
a08003d4:	401b7000 	mfc0	k1,c0_epc
a08003d8:	00000000 	nop
a08003dc:	af5b0094 	sw	k1,148(k0)
a08003e0:	af5c0070 	sw	gp,112(k0)
a08003e4:	af5d0074 	sw	sp,116(k0)
a08003e8:	af5e0078 	sw	s8,120(k0)
a08003ec:	af5f007c 	sw	ra,124(k0)
a08003f0:	401b6800 	mfc0	k1,c0_cause
a08003f4:	00000000 	nop
a08003f8:	af5b0090 	sw	k1,144(k0)
a08003fc:	401b6000 	mfc0	k1,c0_sr
a0800400:	00000000 	nop
a0800404:	af5b0080 	sw	k1,128(k0)
a0800408:	401b4000 	mfc0	k1,c0_badvaddr
a080040c:	00000000 	nop
a0800410:	0c2007d8 	jal	a0801f60 <scheduler>
a0800414:	af5b008c 	sw	k1,140(k0)
a0800418:	3c1aa080 	lui	k0,0xa080
a080041c:	8f5a4618 	lw	k0,17944(k0)
a0800420:	275a0000 	addiu	k0,k0,0
a0800424:	8f410004 	lw	at,4(k0)
a0800428:	8f420008 	lw	v0,8(k0)
a080042c:	8f43000c 	lw	v1,12(k0)
a0800430:	8f440010 	lw	a0,16(k0)
a0800434:	8f450014 	lw	a1,20(k0)
a0800438:	8f460018 	lw	a2,24(k0)
a080043c:	8f47001c 	lw	a3,28(k0)
a0800440:	8f480020 	lw	t0,32(k0)
a0800444:	8f490024 	lw	t1,36(k0)
a0800448:	8f4a0028 	lw	t2,40(k0)
a080044c:	8f4b002c 	lw	t3,44(k0)
a0800450:	8f4c0030 	lw	t4,48(k0)
a0800454:	8f4d0034 	lw	t5,52(k0)
a0800458:	8f4e0038 	lw	t6,56(k0)
a080045c:	8f4f003c 	lw	t7,60(k0)
a0800460:	8f500040 	lw	s0,64(k0)
a0800464:	8f510044 	lw	s1,68(k0)
a0800468:	8f520048 	lw	s2,72(k0)
a080046c:	8f53004c 	lw	s3,76(k0)
a0800470:	8f540050 	lw	s4,80(k0)
a0800474:	8f550054 	lw	s5,84(k0)
a0800478:	8f560058 	lw	s6,88(k0)
a080047c:	8f57005c 	lw	s7,92(k0)
a0800480:	8f580060 	lw	t8,96(k0)
a0800484:	8f590064 	lw	t9,100(k0)
a0800488:	8f5b0094 	lw	k1,148(k0)
a080048c:	409b7000 	mtc0	k1,c0_epc
a0800490:	8f5c0070 	lw	gp,112(k0)
a0800494:	8f5d0074 	lw	sp,116(k0)
a0800498:	8f5e0078 	lw	s8,120(k0)
a080049c:	8f5f007c 	lw	ra,124(k0)
a08004a0:	8f5b0090 	lw	k1,144(k0)
a08004a4:	409b6800 	mtc0	k1,c0_cause
a08004a8:	8f5b0080 	lw	k1,128(k0)
a08004ac:	409b6000 	mtc0	k1,c0_sr
a08004b0:	8f5b008c 	lw	k1,140(k0)
a08004b4:	409b4000 	mtc0	k1,c0_badvaddr
a08004b8:	03e00008 	jr	ra
a08004bc:	00000000 	nop

a08004c0 <exception_handler_entry>:
a08004c0:	3c1aa080 	lui	k0,0xa080
a08004c4:	8f5a4618 	lw	k0,17944(k0)
a08004c8:	275a009c 	addiu	k0,k0,156
a08004cc:	af410004 	sw	at,4(k0)
a08004d0:	af420008 	sw	v0,8(k0)
a08004d4:	af43000c 	sw	v1,12(k0)
a08004d8:	af440010 	sw	a0,16(k0)
a08004dc:	af450014 	sw	a1,20(k0)
a08004e0:	af460018 	sw	a2,24(k0)
a08004e4:	af47001c 	sw	a3,28(k0)
a08004e8:	af480020 	sw	t0,32(k0)
a08004ec:	af490024 	sw	t1,36(k0)
a08004f0:	af4a0028 	sw	t2,40(k0)
a08004f4:	af4b002c 	sw	t3,44(k0)
a08004f8:	af4c0030 	sw	t4,48(k0)
a08004fc:	af4d0034 	sw	t5,52(k0)
a0800500:	af4e0038 	sw	t6,56(k0)
a0800504:	af4f003c 	sw	t7,60(k0)
a0800508:	af500040 	sw	s0,64(k0)
a080050c:	af510044 	sw	s1,68(k0)
a0800510:	af520048 	sw	s2,72(k0)
a0800514:	af53004c 	sw	s3,76(k0)
a0800518:	af540050 	sw	s4,80(k0)
a080051c:	af550054 	sw	s5,84(k0)
a0800520:	af560058 	sw	s6,88(k0)
a0800524:	af57005c 	sw	s7,92(k0)
a0800528:	af580060 	sw	t8,96(k0)
a080052c:	af590064 	sw	t9,100(k0)
a0800530:	401b7000 	mfc0	k1,c0_epc
a0800534:	00000000 	nop
a0800538:	af5b0094 	sw	k1,148(k0)
a080053c:	af5c0070 	sw	gp,112(k0)
a0800540:	af5d0074 	sw	sp,116(k0)
a0800544:	af5e0078 	sw	s8,120(k0)
a0800548:	af5f007c 	sw	ra,124(k0)
a080054c:	401b6800 	mfc0	k1,c0_cause
a0800550:	00000000 	nop
a0800554:	af5b0090 	sw	k1,144(k0)
a0800558:	401b6000 	mfc0	k1,c0_sr
a080055c:	00000000 	nop
a0800560:	af5b0080 	sw	k1,128(k0)
a0800564:	401b4000 	mfc0	k1,c0_badvaddr
a0800568:	00000000 	nop
a080056c:	af5b008c 	sw	k1,140(k0)
a0800570:	401a6800 	mfc0	k0,c0_cause
a0800574:	00000000 	nop
a0800578:	335a007c 	andi	k0,k0,0x7c
a080057c:	001ad082 	srl	k0,k0,0x2
a0800580:	241b0008 	li	k1,8
a0800584:	135b0008 	beq	k0,k1,a08005a8 <Syscall>
a0800588:	00000000 	nop
a080058c:	241b0000 	li	k1,0
a0800590:	135b0003 	beq	k0,k1,a08005a0 <Interrupt>
a0800594:	00000000 	nop
a0800598:	082001d7 	j	a080075c <handle_other>
a080059c:	00000000 	nop

a08005a0 <Interrupt>:
a08005a0:	0820016c 	j	a08005b0 <handle_int>
a08005a4:	00000000 	nop

a08005a8 <Syscall>:
a08005a8:	082001a1 	j	a0800684 <handle_syscall>
a08005ac:	00000000 	nop

a08005b0 <handle_int>:
a08005b0:	27bdfff8 	addiu	sp,sp,-8
a08005b4:	40046000 	mfc0	a0,c0_sr
a08005b8:	40056800 	mfc0	a1,c0_cause
a08005bc:	0c200713 	jal	a0801c4c <interrupt_helper>
a08005c0:	00000000 	nop
a08005c4:	27bd0008 	addiu	sp,sp,8
a08005c8:	3c1aa080 	lui	k0,0xa080
a08005cc:	8f5a4618 	lw	k0,17944(k0)
a08005d0:	275a009c 	addiu	k0,k0,156
a08005d4:	8f410004 	lw	at,4(k0)
a08005d8:	8f420008 	lw	v0,8(k0)
a08005dc:	8f43000c 	lw	v1,12(k0)
a08005e0:	8f440010 	lw	a0,16(k0)
a08005e4:	8f450014 	lw	a1,20(k0)
a08005e8:	8f460018 	lw	a2,24(k0)
a08005ec:	8f47001c 	lw	a3,28(k0)
a08005f0:	8f480020 	lw	t0,32(k0)
a08005f4:	8f490024 	lw	t1,36(k0)
a08005f8:	8f4a0028 	lw	t2,40(k0)
a08005fc:	8f4b002c 	lw	t3,44(k0)
a0800600:	8f4c0030 	lw	t4,48(k0)
a0800604:	8f4d0034 	lw	t5,52(k0)
a0800608:	8f4e0038 	lw	t6,56(k0)
a080060c:	8f4f003c 	lw	t7,60(k0)
a0800610:	8f500040 	lw	s0,64(k0)
a0800614:	8f510044 	lw	s1,68(k0)
a0800618:	8f520048 	lw	s2,72(k0)
a080061c:	8f53004c 	lw	s3,76(k0)
a0800620:	8f540050 	lw	s4,80(k0)
a0800624:	8f550054 	lw	s5,84(k0)
a0800628:	8f560058 	lw	s6,88(k0)
a080062c:	8f57005c 	lw	s7,92(k0)
a0800630:	8f580060 	lw	t8,96(k0)
a0800634:	8f590064 	lw	t9,100(k0)
a0800638:	8f5b0094 	lw	k1,148(k0)
a080063c:	409b7000 	mtc0	k1,c0_epc
a0800640:	8f5c0070 	lw	gp,112(k0)
a0800644:	8f5d0074 	lw	sp,116(k0)
a0800648:	8f5e0078 	lw	s8,120(k0)
a080064c:	8f5f007c 	lw	ra,124(k0)
a0800650:	8f5b0090 	lw	k1,144(k0)
a0800654:	409b6800 	mtc0	k1,c0_cause
a0800658:	8f5b0080 	lw	k1,128(k0)
a080065c:	409b6000 	mtc0	k1,c0_sr
a0800660:	8f5b008c 	lw	k1,140(k0)
a0800664:	409b4000 	mtc0	k1,c0_badvaddr
a0800668:	00000000 	nop
a080066c:	40804800 	mtc0	zero,c0_count
a0800670:	3c1b0002 	lui	k1,0x2
a0800674:	377b49f0 	ori	k1,k1,0x49f0
a0800678:	409b5800 	mtc0	k1,c0_compare
a080067c:	42000018 	eret
a0800680:	00000000 	nop

a0800684 <handle_syscall>:
a0800684:	27bdfff0 	addiu	sp,sp,-16
a0800688:	24c70000 	addiu	a3,a2,0
a080068c:	24a60000 	addiu	a2,a1,0
a0800690:	24850000 	addiu	a1,a0,0
a0800694:	0c2009ac 	jal	a08026b0 <system_call_helper>
a0800698:	24440000 	addiu	a0,v0,0
a080069c:	27bd0010 	addiu	sp,sp,16
a08006a0:	3c1aa080 	lui	k0,0xa080
a08006a4:	8f5a4618 	lw	k0,17944(k0)
a08006a8:	275a009c 	addiu	k0,k0,156
a08006ac:	8f410004 	lw	at,4(k0)
a08006b0:	8f420008 	lw	v0,8(k0)
a08006b4:	8f43000c 	lw	v1,12(k0)
a08006b8:	8f440010 	lw	a0,16(k0)
a08006bc:	8f450014 	lw	a1,20(k0)
a08006c0:	8f460018 	lw	a2,24(k0)
a08006c4:	8f47001c 	lw	a3,28(k0)
a08006c8:	8f480020 	lw	t0,32(k0)
a08006cc:	8f490024 	lw	t1,36(k0)
a08006d0:	8f4a0028 	lw	t2,40(k0)
a08006d4:	8f4b002c 	lw	t3,44(k0)
a08006d8:	8f4c0030 	lw	t4,48(k0)
a08006dc:	8f4d0034 	lw	t5,52(k0)
a08006e0:	8f4e0038 	lw	t6,56(k0)
a08006e4:	8f4f003c 	lw	t7,60(k0)
a08006e8:	8f500040 	lw	s0,64(k0)
a08006ec:	8f510044 	lw	s1,68(k0)
a08006f0:	8f520048 	lw	s2,72(k0)
a08006f4:	8f53004c 	lw	s3,76(k0)
a08006f8:	8f540050 	lw	s4,80(k0)
a08006fc:	8f550054 	lw	s5,84(k0)
a0800700:	8f560058 	lw	s6,88(k0)
a0800704:	8f57005c 	lw	s7,92(k0)
a0800708:	8f580060 	lw	t8,96(k0)
a080070c:	8f590064 	lw	t9,100(k0)
a0800710:	8f5b0094 	lw	k1,148(k0)
a0800714:	409b7000 	mtc0	k1,c0_epc
a0800718:	8f5c0070 	lw	gp,112(k0)
a080071c:	8f5d0074 	lw	sp,116(k0)
a0800720:	8f5e0078 	lw	s8,120(k0)
a0800724:	8f5f007c 	lw	ra,124(k0)
a0800728:	8f5b0090 	lw	k1,144(k0)
a080072c:	409b6800 	mtc0	k1,c0_cause
a0800730:	8f5b0080 	lw	k1,128(k0)
a0800734:	409b6000 	mtc0	k1,c0_sr
a0800738:	8f5b008c 	lw	k1,140(k0)
a080073c:	409b4000 	mtc0	k1,c0_badvaddr
a0800740:	00000000 	nop
a0800744:	401b7000 	mfc0	k1,c0_epc
a0800748:	00000000 	nop
a080074c:	277b0004 	addiu	k1,k1,4
a0800750:	409b7000 	mtc0	k1,c0_epc
a0800754:	42000018 	eret
a0800758:	00000000 	nop

a080075c <handle_other>:
a080075c:	42000018 	eret

a0800760 <invoke_syscall>:
a0800760:	24820000 	addiu	v0,a0,0
a0800764:	24a40000 	addiu	a0,a1,0
a0800768:	24c50000 	addiu	a1,a2,0
a080076c:	24e60000 	addiu	a2,a3,0
a0800770:	0000000c 	syscall
a0800774:	03e00008 	jr	ra
a0800778:	00000000 	nop
a080077c:	00000000 	nop

a0800780 <port_write_ch>:
a0800780:	27bdffe0 	addiu	sp,sp,-32
a0800784:	afbf001c 	sw	ra,28(sp)
a0800788:	afbe0018 	sw	s8,24(sp)
a080078c:	03a0f021 	move	s8,sp
a0800790:	00801021 	move	v0,a0
a0800794:	a3c20020 	sb	v0,32(s8)
a0800798:	3c028001 	lui	v0,0x8001
a080079c:	34421140 	ori	v0,v0,0x1140
a08007a0:	afc20010 	sw	v0,16(s8)
a08007a4:	83c20020 	lb	v0,32(s8)
a08007a8:	8fc30010 	lw	v1,16(s8)
a08007ac:	00402021 	move	a0,v0
a08007b0:	0060f809 	jalr	v1
a08007b4:	00000000 	nop
a08007b8:	03c0e821 	move	sp,s8
a08007bc:	8fbf001c 	lw	ra,28(sp)
a08007c0:	8fbe0018 	lw	s8,24(sp)
a08007c4:	27bd0020 	addiu	sp,sp,32
a08007c8:	03e00008 	jr	ra
a08007cc:	00000000 	nop

a08007d0 <port_write>:
a08007d0:	27bdffe0 	addiu	sp,sp,-32
a08007d4:	afbf001c 	sw	ra,28(sp)
a08007d8:	afbe0018 	sw	s8,24(sp)
a08007dc:	03a0f021 	move	s8,sp
a08007e0:	afc40020 	sw	a0,32(s8)
a08007e4:	3c028001 	lui	v0,0x8001
a08007e8:	34421100 	ori	v0,v0,0x1100
a08007ec:	afc20010 	sw	v0,16(s8)
a08007f0:	8fc20010 	lw	v0,16(s8)
a08007f4:	8fc40020 	lw	a0,32(s8)
a08007f8:	0040f809 	jalr	v0
a08007fc:	00000000 	nop
a0800800:	03c0e821 	move	sp,s8
a0800804:	8fbf001c 	lw	ra,28(sp)
a0800808:	8fbe0018 	lw	s8,24(sp)
a080080c:	27bd0020 	addiu	sp,sp,32
a0800810:	03e00008 	jr	ra
a0800814:	00000000 	nop
	...

a0800820 <vt100_move_cursor>:
a0800820:	27bdffe8 	addiu	sp,sp,-24
a0800824:	afbf0014 	sw	ra,20(sp)
a0800828:	afbe0010 	sw	s8,16(sp)
a080082c:	03a0f021 	move	s8,sp
a0800830:	afc40018 	sw	a0,24(s8)
a0800834:	afc5001c 	sw	a1,28(s8)
a0800838:	3c02a080 	lui	v0,0xa080
a080083c:	24443f70 	addiu	a0,v0,16240
a0800840:	2405001b 	li	a1,27
a0800844:	8fc6001c 	lw	a2,28(s8)
a0800848:	8fc70018 	lw	a3,24(s8)
a080084c:	0c200d69 	jal	a08035a4 <printk>
a0800850:	00000000 	nop
a0800854:	03c0e821 	move	sp,s8
a0800858:	8fbf0014 	lw	ra,20(sp)
a080085c:	8fbe0010 	lw	s8,16(sp)
a0800860:	27bd0018 	addiu	sp,sp,24
a0800864:	03e00008 	jr	ra
a0800868:	00000000 	nop

a080086c <vt100_clear>:
a080086c:	27bdffe8 	addiu	sp,sp,-24
a0800870:	afbf0014 	sw	ra,20(sp)
a0800874:	afbe0010 	sw	s8,16(sp)
a0800878:	03a0f021 	move	s8,sp
a080087c:	3c02a080 	lui	v0,0xa080
a0800880:	24443f7c 	addiu	a0,v0,16252
a0800884:	2405001b 	li	a1,27
a0800888:	0c200d69 	jal	a08035a4 <printk>
a080088c:	00000000 	nop
a0800890:	03c0e821 	move	sp,s8
a0800894:	8fbf0014 	lw	ra,20(sp)
a0800898:	8fbe0010 	lw	s8,16(sp)
a080089c:	27bd0018 	addiu	sp,sp,24
a08008a0:	03e00008 	jr	ra
a08008a4:	00000000 	nop

a08008a8 <vt100_hidden_cursor>:
a08008a8:	27bdffe8 	addiu	sp,sp,-24
a08008ac:	afbf0014 	sw	ra,20(sp)
a08008b0:	afbe0010 	sw	s8,16(sp)
a08008b4:	03a0f021 	move	s8,sp
a08008b8:	3c02a080 	lui	v0,0xa080
a08008bc:	24443f84 	addiu	a0,v0,16260
a08008c0:	2405001b 	li	a1,27
a08008c4:	0c200d69 	jal	a08035a4 <printk>
a08008c8:	00000000 	nop
a08008cc:	03c0e821 	move	sp,s8
a08008d0:	8fbf0014 	lw	ra,20(sp)
a08008d4:	8fbe0010 	lw	s8,16(sp)
a08008d8:	27bd0018 	addiu	sp,sp,24
a08008dc:	03e00008 	jr	ra
a08008e0:	00000000 	nop

a08008e4 <screen_write_ch>:
a08008e4:	27bdfff8 	addiu	sp,sp,-8
a08008e8:	afbe0004 	sw	s8,4(sp)
a08008ec:	03a0f021 	move	s8,sp
a08008f0:	00801021 	move	v0,a0
a08008f4:	a3c20008 	sb	v0,8(s8)
a08008f8:	83c30008 	lb	v1,8(s8)
a08008fc:	2402000a 	li	v0,10
a0800900:	1462000b 	bne	v1,v0,a0800930 <screen_write_ch+0x4c>
a0800904:	00000000 	nop
a0800908:	3c03a080 	lui	v1,0xa080
a080090c:	24020001 	li	v0,1
a0800910:	ac624610 	sw	v0,17936(v1)
a0800914:	3c02a080 	lui	v0,0xa080
a0800918:	8c424614 	lw	v0,17940(v0)
a080091c:	24430001 	addiu	v1,v0,1
a0800920:	3c02a080 	lui	v0,0xa080
a0800924:	ac434614 	sw	v1,17940(v0)
a0800928:	08200260 	j	a0800980 <screen_write_ch+0x9c>
a080092c:	00000000 	nop
a0800930:	3c02a080 	lui	v0,0xa080
a0800934:	8c424614 	lw	v0,17940(v0)
a0800938:	00021900 	sll	v1,v0,0x4
a080093c:	00031080 	sll	v0,v1,0x2
a0800940:	00621021 	addu	v0,v1,v0
a0800944:	2443ffb0 	addiu	v1,v0,-80
a0800948:	3c02a080 	lui	v0,0xa080
a080094c:	8c424610 	lw	v0,17936(v0)
a0800950:	2442ffff 	addiu	v0,v0,-1
a0800954:	00621821 	addu	v1,v1,v0
a0800958:	3c02a080 	lui	v0,0xa080
a080095c:	24424640 	addiu	v0,v0,17984
a0800960:	00621821 	addu	v1,v1,v0
a0800964:	93c20008 	lbu	v0,8(s8)
a0800968:	a0620000 	sb	v0,0(v1)
a080096c:	3c02a080 	lui	v0,0xa080
a0800970:	8c424610 	lw	v0,17936(v0)
a0800974:	24430001 	addiu	v1,v0,1
a0800978:	3c02a080 	lui	v0,0xa080
a080097c:	ac434610 	sw	v1,17936(v0)
a0800980:	03c0e821 	move	sp,s8
a0800984:	8fbe0004 	lw	s8,4(sp)
a0800988:	27bd0008 	addiu	sp,sp,8
a080098c:	03e00008 	jr	ra
a0800990:	00000000 	nop

a0800994 <init_screen>:
a0800994:	27bdffe8 	addiu	sp,sp,-24
a0800998:	afbf0014 	sw	ra,20(sp)
a080099c:	afbe0010 	sw	s8,16(sp)
a08009a0:	03a0f021 	move	s8,sp
a08009a4:	0c20022a 	jal	a08008a8 <vt100_hidden_cursor>
a08009a8:	00000000 	nop
a08009ac:	0c20021b 	jal	a080086c <vt100_clear>
a08009b0:	00000000 	nop
a08009b4:	03c0e821 	move	sp,s8
a08009b8:	8fbf0014 	lw	ra,20(sp)
a08009bc:	8fbe0010 	lw	s8,16(sp)
a08009c0:	27bd0018 	addiu	sp,sp,24
a08009c4:	03e00008 	jr	ra
a08009c8:	00000000 	nop

a08009cc <screen_clear>:
a08009cc:	27bdffe0 	addiu	sp,sp,-32
a08009d0:	afbf001c 	sw	ra,28(sp)
a08009d4:	afbe0018 	sw	s8,24(sp)
a08009d8:	03a0f021 	move	s8,sp
a08009dc:	afc00014 	sw	zero,20(s8)
a08009e0:	08200292 	j	a0800a48 <screen_clear+0x7c>
a08009e4:	00000000 	nop
a08009e8:	afc00010 	sw	zero,16(s8)
a08009ec:	0820028b 	j	a0800a2c <screen_clear+0x60>
a08009f0:	00000000 	nop
a08009f4:	8fc20014 	lw	v0,20(s8)
a08009f8:	00021900 	sll	v1,v0,0x4
a08009fc:	00031080 	sll	v0,v1,0x2
a0800a00:	00621821 	addu	v1,v1,v0
a0800a04:	8fc20010 	lw	v0,16(s8)
a0800a08:	00621821 	addu	v1,v1,v0
a0800a0c:	3c02a080 	lui	v0,0xa080
a0800a10:	24424640 	addiu	v0,v0,17984
a0800a14:	00621821 	addu	v1,v1,v0
a0800a18:	24020020 	li	v0,32
a0800a1c:	a0620000 	sb	v0,0(v1)
a0800a20:	8fc20010 	lw	v0,16(s8)
a0800a24:	24420001 	addiu	v0,v0,1
a0800a28:	afc20010 	sw	v0,16(s8)
a0800a2c:	8fc20010 	lw	v0,16(s8)
a0800a30:	28420050 	slti	v0,v0,80
a0800a34:	1440ffef 	bnez	v0,a08009f4 <screen_clear+0x28>
a0800a38:	00000000 	nop
a0800a3c:	8fc20014 	lw	v0,20(s8)
a0800a40:	24420001 	addiu	v0,v0,1
a0800a44:	afc20014 	sw	v0,20(s8)
a0800a48:	8fc20014 	lw	v0,20(s8)
a0800a4c:	28420032 	slti	v0,v0,50
a0800a50:	1440ffe5 	bnez	v0,a08009e8 <screen_clear+0x1c>
a0800a54:	00000000 	nop
a0800a58:	3c03a080 	lui	v1,0xa080
a0800a5c:	24020001 	li	v0,1
a0800a60:	ac624610 	sw	v0,17936(v1)
a0800a64:	3c03a080 	lui	v1,0xa080
a0800a68:	24020001 	li	v0,1
a0800a6c:	ac624614 	sw	v0,17940(v1)
a0800a70:	0c2002d6 	jal	a0800b58 <screen_reflush>
a0800a74:	00000000 	nop
a0800a78:	03c0e821 	move	sp,s8
a0800a7c:	8fbf001c 	lw	ra,28(sp)
a0800a80:	8fbe0018 	lw	s8,24(sp)
a0800a84:	27bd0020 	addiu	sp,sp,32
a0800a88:	03e00008 	jr	ra
a0800a8c:	00000000 	nop

a0800a90 <screen_move_cursor>:
a0800a90:	27bdfff8 	addiu	sp,sp,-8
a0800a94:	afbe0004 	sw	s8,4(sp)
a0800a98:	03a0f021 	move	s8,sp
a0800a9c:	afc40008 	sw	a0,8(s8)
a0800aa0:	afc5000c 	sw	a1,12(s8)
a0800aa4:	3c03a080 	lui	v1,0xa080
a0800aa8:	8fc20008 	lw	v0,8(s8)
a0800aac:	ac624610 	sw	v0,17936(v1)
a0800ab0:	3c03a080 	lui	v1,0xa080
a0800ab4:	8fc2000c 	lw	v0,12(s8)
a0800ab8:	ac624614 	sw	v0,17940(v1)
a0800abc:	03c0e821 	move	sp,s8
a0800ac0:	8fbe0004 	lw	s8,4(sp)
a0800ac4:	27bd0008 	addiu	sp,sp,8
a0800ac8:	03e00008 	jr	ra
a0800acc:	00000000 	nop

a0800ad0 <screen_write>:
a0800ad0:	27bdffe0 	addiu	sp,sp,-32
a0800ad4:	afbf001c 	sw	ra,28(sp)
a0800ad8:	afbe0018 	sw	s8,24(sp)
a0800adc:	03a0f021 	move	s8,sp
a0800ae0:	afc40020 	sw	a0,32(s8)
a0800ae4:	afc00014 	sw	zero,20(s8)
a0800ae8:	8fc40020 	lw	a0,32(s8)
a0800aec:	0c200ab4 	jal	a0802ad0 <strlen>
a0800af0:	00000000 	nop
a0800af4:	afc20010 	sw	v0,16(s8)
a0800af8:	afc00014 	sw	zero,20(s8)
a0800afc:	082002cb 	j	a0800b2c <screen_write+0x5c>
a0800b00:	00000000 	nop
a0800b04:	8fc30014 	lw	v1,20(s8)
a0800b08:	8fc20020 	lw	v0,32(s8)
a0800b0c:	00431021 	addu	v0,v0,v1
a0800b10:	80420000 	lb	v0,0(v0)
a0800b14:	00402021 	move	a0,v0
a0800b18:	0c200239 	jal	a08008e4 <screen_write_ch>
a0800b1c:	00000000 	nop
a0800b20:	8fc20014 	lw	v0,20(s8)
a0800b24:	24420001 	addiu	v0,v0,1
a0800b28:	afc20014 	sw	v0,20(s8)
a0800b2c:	8fc20014 	lw	v0,20(s8)
a0800b30:	8fc30010 	lw	v1,16(s8)
a0800b34:	0043102a 	slt	v0,v0,v1
a0800b38:	1440fff2 	bnez	v0,a0800b04 <screen_write+0x34>
a0800b3c:	00000000 	nop
a0800b40:	03c0e821 	move	sp,s8
a0800b44:	8fbf001c 	lw	ra,28(sp)
a0800b48:	8fbe0018 	lw	s8,24(sp)
a0800b4c:	27bd0020 	addiu	sp,sp,32
a0800b50:	03e00008 	jr	ra
a0800b54:	00000000 	nop

a0800b58 <screen_reflush>:
a0800b58:	27bdffe0 	addiu	sp,sp,-32
a0800b5c:	afbf001c 	sw	ra,28(sp)
a0800b60:	afbe0018 	sw	s8,24(sp)
a0800b64:	03a0f021 	move	s8,sp
a0800b68:	afc00014 	sw	zero,20(s8)
a0800b6c:	08200329 	j	a0800ca4 <screen_reflush+0x14c>
a0800b70:	00000000 	nop
a0800b74:	afc00010 	sw	zero,16(s8)
a0800b78:	08200322 	j	a0800c88 <screen_reflush+0x130>
a0800b7c:	00000000 	nop
a0800b80:	8fc20014 	lw	v0,20(s8)
a0800b84:	00021900 	sll	v1,v0,0x4
a0800b88:	00031080 	sll	v0,v1,0x2
a0800b8c:	00621821 	addu	v1,v1,v0
a0800b90:	8fc20010 	lw	v0,16(s8)
a0800b94:	00621821 	addu	v1,v1,v0
a0800b98:	3c02a080 	lui	v0,0xa080
a0800b9c:	24424640 	addiu	v0,v0,17984
a0800ba0:	00621021 	addu	v0,v1,v0
a0800ba4:	80440000 	lb	a0,0(v0)
a0800ba8:	8fc20014 	lw	v0,20(s8)
a0800bac:	00021900 	sll	v1,v0,0x4
a0800bb0:	00031080 	sll	v0,v1,0x2
a0800bb4:	00621821 	addu	v1,v1,v0
a0800bb8:	8fc20010 	lw	v0,16(s8)
a0800bbc:	00621821 	addu	v1,v1,v0
a0800bc0:	3c02a080 	lui	v0,0xa080
a0800bc4:	244255e0 	addiu	v0,v0,21984
a0800bc8:	00621021 	addu	v0,v1,v0
a0800bcc:	80420000 	lb	v0,0(v0)
a0800bd0:	1082002a 	beq	a0,v0,a0800c7c <screen_reflush+0x124>
a0800bd4:	00000000 	nop
a0800bd8:	8fc20010 	lw	v0,16(s8)
a0800bdc:	24430001 	addiu	v1,v0,1
a0800be0:	8fc20014 	lw	v0,20(s8)
a0800be4:	24420001 	addiu	v0,v0,1
a0800be8:	00602021 	move	a0,v1
a0800bec:	00402821 	move	a1,v0
a0800bf0:	0c200208 	jal	a0800820 <vt100_move_cursor>
a0800bf4:	00000000 	nop
a0800bf8:	8fc20014 	lw	v0,20(s8)
a0800bfc:	00021900 	sll	v1,v0,0x4
a0800c00:	00031080 	sll	v0,v1,0x2
a0800c04:	00621821 	addu	v1,v1,v0
a0800c08:	8fc20010 	lw	v0,16(s8)
a0800c0c:	00621821 	addu	v1,v1,v0
a0800c10:	3c02a080 	lui	v0,0xa080
a0800c14:	24424640 	addiu	v0,v0,17984
a0800c18:	00621021 	addu	v0,v1,v0
a0800c1c:	80420000 	lb	v0,0(v0)
a0800c20:	00402021 	move	a0,v0
a0800c24:	0c2001e0 	jal	a0800780 <port_write_ch>
a0800c28:	00000000 	nop
a0800c2c:	8fc20014 	lw	v0,20(s8)
a0800c30:	00021900 	sll	v1,v0,0x4
a0800c34:	00031080 	sll	v0,v1,0x2
a0800c38:	00621821 	addu	v1,v1,v0
a0800c3c:	8fc20010 	lw	v0,16(s8)
a0800c40:	00622021 	addu	a0,v1,v0
a0800c44:	8fc20014 	lw	v0,20(s8)
a0800c48:	00021900 	sll	v1,v0,0x4
a0800c4c:	00031080 	sll	v0,v1,0x2
a0800c50:	00621821 	addu	v1,v1,v0
a0800c54:	8fc20010 	lw	v0,16(s8)
a0800c58:	00621821 	addu	v1,v1,v0
a0800c5c:	3c02a080 	lui	v0,0xa080
a0800c60:	24424640 	addiu	v0,v0,17984
a0800c64:	00621021 	addu	v0,v1,v0
a0800c68:	80430000 	lb	v1,0(v0)
a0800c6c:	3c02a080 	lui	v0,0xa080
a0800c70:	244255e0 	addiu	v0,v0,21984
a0800c74:	00821021 	addu	v0,a0,v0
a0800c78:	a0430000 	sb	v1,0(v0)
a0800c7c:	8fc20010 	lw	v0,16(s8)
a0800c80:	24420001 	addiu	v0,v0,1
a0800c84:	afc20010 	sw	v0,16(s8)
a0800c88:	8fc20010 	lw	v0,16(s8)
a0800c8c:	28420050 	slti	v0,v0,80
a0800c90:	1440ffbb 	bnez	v0,a0800b80 <screen_reflush+0x28>
a0800c94:	00000000 	nop
a0800c98:	8fc20014 	lw	v0,20(s8)
a0800c9c:	24420001 	addiu	v0,v0,1
a0800ca0:	afc20014 	sw	v0,20(s8)
a0800ca4:	8fc20014 	lw	v0,20(s8)
a0800ca8:	28420032 	slti	v0,v0,50
a0800cac:	1440ffb1 	bnez	v0,a0800b74 <screen_reflush+0x1c>
a0800cb0:	00000000 	nop
a0800cb4:	3c02a080 	lui	v0,0xa080
a0800cb8:	8c434610 	lw	v1,17936(v0)
a0800cbc:	3c02a080 	lui	v0,0xa080
a0800cc0:	8c424614 	lw	v0,17940(v0)
a0800cc4:	00602021 	move	a0,v1
a0800cc8:	00402821 	move	a1,v0
a0800ccc:	0c200208 	jal	a0800820 <vt100_move_cursor>
a0800cd0:	00000000 	nop
a0800cd4:	03c0e821 	move	sp,s8
a0800cd8:	8fbf001c 	lw	ra,28(sp)
a0800cdc:	8fbe0018 	lw	s8,24(sp)
a0800ce0:	27bd0020 	addiu	sp,sp,32
a0800ce4:	03e00008 	jr	ra
a0800ce8:	00000000 	nop
a0800cec:	00000000 	nop

a0800cf0 <init_pcb>:
a0800cf0:	27bdffd8 	addiu	sp,sp,-40
a0800cf4:	afbf0024 	sw	ra,36(sp)
a0800cf8:	afbe0020 	sw	s8,32(sp)
a0800cfc:	03a0f021 	move	s8,sp
a0800d00:	afc00018 	sw	zero,24(s8)
a0800d04:	3c02a0f0 	lui	v0,0xa0f0
a0800d08:	afc20014 	sw	v0,20(s8)
a0800d0c:	3c02a080 	lui	v0,0xa080
a0800d10:	8c424368 	lw	v0,17256(v0)
a0800d14:	afc20010 	sw	v0,16(s8)
a0800d18:	3c02a080 	lui	v0,0xa080
a0800d1c:	24444624 	addiu	a0,v0,17956
a0800d20:	0c2008bc 	jal	a08022f0 <queue_init>
a0800d24:	00000000 	nop
a0800d28:	3c02a080 	lui	v0,0xa080
a0800d2c:	2444461c 	addiu	a0,v0,17948
a0800d30:	0c2008bc 	jal	a08022f0 <queue_init>
a0800d34:	00000000 	nop
a0800d38:	3c02a080 	lui	v0,0xa080
a0800d3c:	2444462c 	addiu	a0,v0,17964
a0800d40:	0c2008bc 	jal	a08022f0 <queue_init>
a0800d44:	00000000 	nop
a0800d48:	afc00018 	sw	zero,24(s8)
a0800d4c:	082003f8 	j	a0800fe0 <init_pcb+0x2f0>
a0800d50:	00000000 	nop
a0800d54:	3c02a080 	lui	v0,0xa080
a0800d58:	8c4242f0 	lw	v0,17136(v0)
a0800d5c:	000218c0 	sll	v1,v0,0x3
a0800d60:	00031080 	sll	v0,v1,0x2
a0800d64:	00431023 	subu	v0,v0,v1
a0800d68:	00021900 	sll	v1,v0,0x4
a0800d6c:	00621823 	subu	v1,v1,v0
a0800d70:	3c02a080 	lui	v0,0xa080
a0800d74:	244266b0 	addiu	v0,v0,26288
a0800d78:	00621021 	addu	v0,v1,v0
a0800d7c:	00402021 	move	a0,v0
a0800d80:	00002821 	move	a1,zero
a0800d84:	24060168 	li	a2,360
a0800d88:	0c200ae7 	jal	a0802b9c <memset>
a0800d8c:	00000000 	nop
a0800d90:	3c02a080 	lui	v0,0xa080
a0800d94:	8c4742f0 	lw	a3,17136(v0)
a0800d98:	3c02a080 	lui	v0,0xa080
a0800d9c:	8c4442f0 	lw	a0,17136(v0)
a0800da0:	8fc50014 	lw	a1,20(s8)
a0800da4:	3c06a080 	lui	a2,0xa080
a0800da8:	00801021 	move	v0,a0
a0800dac:	000218c0 	sll	v1,v0,0x3
a0800db0:	00031080 	sll	v0,v1,0x2
a0800db4:	00431023 	subu	v0,v0,v1
a0800db8:	00021900 	sll	v1,v0,0x4
a0800dbc:	00621823 	subu	v1,v1,v0
a0800dc0:	24c266b0 	addiu	v0,a2,26288
a0800dc4:	00621021 	addu	v0,v1,v0
a0800dc8:	ac450138 	sw	a1,312(v0)
a0800dcc:	3c05a080 	lui	a1,0xa080
a0800dd0:	00801021 	move	v0,a0
a0800dd4:	000218c0 	sll	v1,v0,0x3
a0800dd8:	00031080 	sll	v0,v1,0x2
a0800ddc:	00431023 	subu	v0,v0,v1
a0800de0:	00021900 	sll	v1,v0,0x4
a0800de4:	00621823 	subu	v1,v1,v0
a0800de8:	24a266b0 	addiu	v0,a1,26288
a0800dec:	00621021 	addu	v0,v1,v0
a0800df0:	8c440138 	lw	a0,312(v0)
a0800df4:	3c05a080 	lui	a1,0xa080
a0800df8:	00e01021 	move	v0,a3
a0800dfc:	000218c0 	sll	v1,v0,0x3
a0800e00:	00031080 	sll	v0,v1,0x2
a0800e04:	00431023 	subu	v0,v0,v1
a0800e08:	00021900 	sll	v1,v0,0x4
a0800e0c:	00621823 	subu	v1,v1,v0
a0800e10:	24a266b0 	addiu	v0,a1,26288
a0800e14:	00621021 	addu	v0,v1,v0
a0800e18:	ac440074 	sw	a0,116(v0)
a0800e1c:	8fc20014 	lw	v0,20(s8)
a0800e20:	2442d000 	addiu	v0,v0,-12288
a0800e24:	afc20014 	sw	v0,20(s8)
a0800e28:	3c02a080 	lui	v0,0xa080
a0800e2c:	8c4742f0 	lw	a3,17136(v0)
a0800e30:	3c02a080 	lui	v0,0xa080
a0800e34:	8c4442f0 	lw	a0,17136(v0)
a0800e38:	8fc50014 	lw	a1,20(s8)
a0800e3c:	3c02a080 	lui	v0,0xa080
a0800e40:	244666b0 	addiu	a2,v0,26288
a0800e44:	00801021 	move	v0,a0
a0800e48:	000218c0 	sll	v1,v0,0x3
a0800e4c:	00031080 	sll	v0,v1,0x2
a0800e50:	00431023 	subu	v0,v0,v1
a0800e54:	00021900 	sll	v1,v0,0x4
a0800e58:	00621023 	subu	v0,v1,v0
a0800e5c:	00c21021 	addu	v0,a2,v0
a0800e60:	ac45013c 	sw	a1,316(v0)
a0800e64:	3c02a080 	lui	v0,0xa080
a0800e68:	244566b0 	addiu	a1,v0,26288
a0800e6c:	00801021 	move	v0,a0
a0800e70:	000218c0 	sll	v1,v0,0x3
a0800e74:	00031080 	sll	v0,v1,0x2
a0800e78:	00431023 	subu	v0,v0,v1
a0800e7c:	00021900 	sll	v1,v0,0x4
a0800e80:	00621023 	subu	v0,v1,v0
a0800e84:	00a21021 	addu	v0,a1,v0
a0800e88:	8c44013c 	lw	a0,316(v0)
a0800e8c:	3c02a080 	lui	v0,0xa080
a0800e90:	244566b0 	addiu	a1,v0,26288
a0800e94:	00e01021 	move	v0,a3
a0800e98:	000218c0 	sll	v1,v0,0x3
a0800e9c:	00031080 	sll	v0,v1,0x2
a0800ea0:	00431023 	subu	v0,v0,v1
a0800ea4:	00021900 	sll	v1,v0,0x4
a0800ea8:	00621023 	subu	v0,v1,v0
a0800eac:	00a21021 	addu	v0,a1,v0
a0800eb0:	ac440110 	sw	a0,272(v0)
a0800eb4:	8fc20014 	lw	v0,20(s8)
a0800eb8:	2442d000 	addiu	v0,v0,-12288
a0800ebc:	afc20014 	sw	v0,20(s8)
a0800ec0:	3c02a080 	lui	v0,0xa080
a0800ec4:	8c4542f0 	lw	a1,17136(v0)
a0800ec8:	8fc20018 	lw	v0,24(s8)
a0800ecc:	3c03a080 	lui	v1,0xa080
a0800ed0:	00022080 	sll	a0,v0,0x2
a0800ed4:	24624328 	addiu	v0,v1,17192
a0800ed8:	00821021 	addu	v0,a0,v0
a0800edc:	8c420000 	lw	v0,0(v0)
a0800ee0:	8c440000 	lw	a0,0(v0)
a0800ee4:	3c02a080 	lui	v0,0xa080
a0800ee8:	244666b0 	addiu	a2,v0,26288
a0800eec:	00a01021 	move	v0,a1
a0800ef0:	000218c0 	sll	v1,v0,0x3
a0800ef4:	00031080 	sll	v0,v1,0x2
a0800ef8:	00431023 	subu	v0,v0,v1
a0800efc:	00021900 	sll	v1,v0,0x4
a0800f00:	00621023 	subu	v0,v1,v0
a0800f04:	00c21021 	addu	v0,a2,v0
a0800f08:	ac440130 	sw	a0,304(v0)
a0800f0c:	3c02a080 	lui	v0,0xa080
a0800f10:	8c4342f0 	lw	v1,17136(v0)
a0800f14:	3c02a080 	lui	v0,0xa080
a0800f18:	8c4442f0 	lw	a0,17136(v0)
a0800f1c:	3c05a080 	lui	a1,0xa080
a0800f20:	00601021 	move	v0,v1
a0800f24:	000218c0 	sll	v1,v0,0x3
a0800f28:	00031080 	sll	v0,v1,0x2
a0800f2c:	00431023 	subu	v0,v0,v1
a0800f30:	00021900 	sll	v1,v0,0x4
a0800f34:	00621823 	subu	v1,v1,v0
a0800f38:	24a266b0 	addiu	v0,a1,26288
a0800f3c:	00621021 	addu	v0,v1,v0
a0800f40:	ac440148 	sw	a0,328(v0)
a0800f44:	3c02a080 	lui	v0,0xa080
a0800f48:	8c4542f0 	lw	a1,17136(v0)
a0800f4c:	8fc20018 	lw	v0,24(s8)
a0800f50:	3c03a080 	lui	v1,0xa080
a0800f54:	00022080 	sll	a0,v0,0x2
a0800f58:	24624328 	addiu	v0,v1,17192
a0800f5c:	00821021 	addu	v0,a0,v0
a0800f60:	8c420000 	lw	v0,0(v0)
a0800f64:	8c440004 	lw	a0,4(v0)
a0800f68:	3c02a080 	lui	v0,0xa080
a0800f6c:	244666b0 	addiu	a2,v0,26288
a0800f70:	00a01021 	move	v0,a1
a0800f74:	000218c0 	sll	v1,v0,0x3
a0800f78:	00031080 	sll	v0,v1,0x2
a0800f7c:	00431023 	subu	v0,v0,v1
a0800f80:	00021900 	sll	v1,v0,0x4
a0800f84:	00621023 	subu	v0,v1,v0
a0800f88:	00c21021 	addu	v0,a2,v0
a0800f8c:	ac44014c 	sw	a0,332(v0)
a0800f90:	3c02a080 	lui	v0,0xa080
a0800f94:	8c4242f0 	lw	v0,17136(v0)
a0800f98:	3c04a080 	lui	a0,0xa080
a0800f9c:	000218c0 	sll	v1,v0,0x3
a0800fa0:	00031080 	sll	v0,v1,0x2
a0800fa4:	00431023 	subu	v0,v0,v1
a0800fa8:	00021900 	sll	v1,v0,0x4
a0800fac:	00621823 	subu	v1,v1,v0
a0800fb0:	248266b0 	addiu	v0,a0,26288
a0800fb4:	00621821 	addu	v1,v1,v0
a0800fb8:	24020002 	li	v0,2
a0800fbc:	ac620150 	sw	v0,336(v1)
a0800fc0:	8fc20018 	lw	v0,24(s8)
a0800fc4:	24420001 	addiu	v0,v0,1
a0800fc8:	afc20018 	sw	v0,24(s8)
a0800fcc:	3c02a080 	lui	v0,0xa080
a0800fd0:	8c4242f0 	lw	v0,17136(v0)
a0800fd4:	24430001 	addiu	v1,v0,1
a0800fd8:	3c02a080 	lui	v0,0xa080
a0800fdc:	ac4342f0 	sw	v1,17136(v0)
a0800fe0:	3c02a080 	lui	v0,0xa080
a0800fe4:	8c434368 	lw	v1,17256(v0)
a0800fe8:	8fc20018 	lw	v0,24(s8)
a0800fec:	0043102a 	slt	v0,v0,v1
a0800ff0:	1440ff58 	bnez	v0,a0800d54 <init_pcb+0x64>
a0800ff4:	00000000 	nop
a0800ff8:	3c02a080 	lui	v0,0xa080
a0800ffc:	8c4343bc 	lw	v1,17340(v0)
a0801000:	8fc20010 	lw	v0,16(s8)
a0801004:	00431021 	addu	v0,v0,v1
a0801008:	afc20010 	sw	v0,16(s8)
a080100c:	afc00018 	sw	zero,24(s8)
a0801010:	082004db 	j	a080136c <init_pcb+0x67c>
a0801014:	00000000 	nop
a0801018:	3c02a080 	lui	v0,0xa080
a080101c:	8c4242f0 	lw	v0,17136(v0)
a0801020:	000218c0 	sll	v1,v0,0x3
a0801024:	00031080 	sll	v0,v1,0x2
a0801028:	00431023 	subu	v0,v0,v1
a080102c:	00021900 	sll	v1,v0,0x4
a0801030:	00621823 	subu	v1,v1,v0
a0801034:	3c02a080 	lui	v0,0xa080
a0801038:	244266b0 	addiu	v0,v0,26288
a080103c:	00621021 	addu	v0,v1,v0
a0801040:	00402021 	move	a0,v0
a0801044:	00002821 	move	a1,zero
a0801048:	24060168 	li	a2,360
a080104c:	0c200ae7 	jal	a0802b9c <memset>
a0801050:	00000000 	nop
a0801054:	3c02a080 	lui	v0,0xa080
a0801058:	8c4742f0 	lw	a3,17136(v0)
a080105c:	3c02a080 	lui	v0,0xa080
a0801060:	8c4442f0 	lw	a0,17136(v0)
a0801064:	8fc50014 	lw	a1,20(s8)
a0801068:	3c06a080 	lui	a2,0xa080
a080106c:	00801021 	move	v0,a0
a0801070:	000218c0 	sll	v1,v0,0x3
a0801074:	00031080 	sll	v0,v1,0x2
a0801078:	00431023 	subu	v0,v0,v1
a080107c:	00021900 	sll	v1,v0,0x4
a0801080:	00621823 	subu	v1,v1,v0
a0801084:	24c266b0 	addiu	v0,a2,26288
a0801088:	00621021 	addu	v0,v1,v0
a080108c:	ac450138 	sw	a1,312(v0)
a0801090:	3c05a080 	lui	a1,0xa080
a0801094:	00801021 	move	v0,a0
a0801098:	000218c0 	sll	v1,v0,0x3
a080109c:	00031080 	sll	v0,v1,0x2
a08010a0:	00431023 	subu	v0,v0,v1
a08010a4:	00021900 	sll	v1,v0,0x4
a08010a8:	00621823 	subu	v1,v1,v0
a08010ac:	24a266b0 	addiu	v0,a1,26288
a08010b0:	00621021 	addu	v0,v1,v0
a08010b4:	8c440138 	lw	a0,312(v0)
a08010b8:	3c05a080 	lui	a1,0xa080
a08010bc:	00e01021 	move	v0,a3
a08010c0:	000218c0 	sll	v1,v0,0x3
a08010c4:	00031080 	sll	v0,v1,0x2
a08010c8:	00431023 	subu	v0,v0,v1
a08010cc:	00021900 	sll	v1,v0,0x4
a08010d0:	00621823 	subu	v1,v1,v0
a08010d4:	24a266b0 	addiu	v0,a1,26288
a08010d8:	00621021 	addu	v0,v1,v0
a08010dc:	ac440074 	sw	a0,116(v0)
a08010e0:	8fc20014 	lw	v0,20(s8)
a08010e4:	2442d000 	addiu	v0,v0,-12288
a08010e8:	afc20014 	sw	v0,20(s8)
a08010ec:	3c02a080 	lui	v0,0xa080
a08010f0:	8c4742f0 	lw	a3,17136(v0)
a08010f4:	3c02a080 	lui	v0,0xa080
a08010f8:	8c4442f0 	lw	a0,17136(v0)
a08010fc:	8fc50014 	lw	a1,20(s8)
a0801100:	3c02a080 	lui	v0,0xa080
a0801104:	244666b0 	addiu	a2,v0,26288
a0801108:	00801021 	move	v0,a0
a080110c:	000218c0 	sll	v1,v0,0x3
a0801110:	00031080 	sll	v0,v1,0x2
a0801114:	00431023 	subu	v0,v0,v1
a0801118:	00021900 	sll	v1,v0,0x4
a080111c:	00621023 	subu	v0,v1,v0
a0801120:	00c21021 	addu	v0,a2,v0
a0801124:	ac45013c 	sw	a1,316(v0)
a0801128:	3c02a080 	lui	v0,0xa080
a080112c:	244566b0 	addiu	a1,v0,26288
a0801130:	00801021 	move	v0,a0
a0801134:	000218c0 	sll	v1,v0,0x3
a0801138:	00031080 	sll	v0,v1,0x2
a080113c:	00431023 	subu	v0,v0,v1
a0801140:	00021900 	sll	v1,v0,0x4
a0801144:	00621023 	subu	v0,v1,v0
a0801148:	00a21021 	addu	v0,a1,v0
a080114c:	8c44013c 	lw	a0,316(v0)
a0801150:	3c02a080 	lui	v0,0xa080
a0801154:	244566b0 	addiu	a1,v0,26288
a0801158:	00e01021 	move	v0,a3
a080115c:	000218c0 	sll	v1,v0,0x3
a0801160:	00031080 	sll	v0,v1,0x2
a0801164:	00431023 	subu	v0,v0,v1
a0801168:	00021900 	sll	v1,v0,0x4
a080116c:	00621023 	subu	v0,v1,v0
a0801170:	00a21021 	addu	v0,a1,v0
a0801174:	ac440110 	sw	a0,272(v0)
a0801178:	8fc20014 	lw	v0,20(s8)
a080117c:	2442d000 	addiu	v0,v0,-12288
a0801180:	afc20014 	sw	v0,20(s8)
a0801184:	3c02a080 	lui	v0,0xa080
a0801188:	8c4542f0 	lw	a1,17136(v0)
a080118c:	8fc20018 	lw	v0,24(s8)
a0801190:	3c03a080 	lui	v1,0xa080
a0801194:	00022080 	sll	a0,v0,0x2
a0801198:	2462437c 	addiu	v0,v1,17276
a080119c:	00821021 	addu	v0,a0,v0
a08011a0:	8c420000 	lw	v0,0(v0)
a08011a4:	8c440000 	lw	a0,0(v0)
a08011a8:	3c02a080 	lui	v0,0xa080
a08011ac:	244666b0 	addiu	a2,v0,26288
a08011b0:	00a01021 	move	v0,a1
a08011b4:	000218c0 	sll	v1,v0,0x3
a08011b8:	00031080 	sll	v0,v1,0x2
a08011bc:	00431023 	subu	v0,v0,v1
a08011c0:	00021900 	sll	v1,v0,0x4
a08011c4:	00621023 	subu	v0,v1,v0
a08011c8:	00c21021 	addu	v0,a2,v0
a08011cc:	ac440130 	sw	a0,304(v0)
a08011d0:	3c02a080 	lui	v0,0xa080
a08011d4:	8c4342f0 	lw	v1,17136(v0)
a08011d8:	3c02a080 	lui	v0,0xa080
a08011dc:	8c4442f0 	lw	a0,17136(v0)
a08011e0:	3c05a080 	lui	a1,0xa080
a08011e4:	00601021 	move	v0,v1
a08011e8:	000218c0 	sll	v1,v0,0x3
a08011ec:	00031080 	sll	v0,v1,0x2
a08011f0:	00431023 	subu	v0,v0,v1
a08011f4:	00021900 	sll	v1,v0,0x4
a08011f8:	00621823 	subu	v1,v1,v0
a08011fc:	24a266b0 	addiu	v0,a1,26288
a0801200:	00621021 	addu	v0,v1,v0
a0801204:	ac440148 	sw	a0,328(v0)
a0801208:	3c02a080 	lui	v0,0xa080
a080120c:	8c4542f0 	lw	a1,17136(v0)
a0801210:	8fc20018 	lw	v0,24(s8)
a0801214:	3c03a080 	lui	v1,0xa080
a0801218:	00022080 	sll	a0,v0,0x2
a080121c:	2462437c 	addiu	v0,v1,17276
a0801220:	00821021 	addu	v0,a0,v0
a0801224:	8c420000 	lw	v0,0(v0)
a0801228:	8c440004 	lw	a0,4(v0)
a080122c:	3c02a080 	lui	v0,0xa080
a0801230:	244666b0 	addiu	a2,v0,26288
a0801234:	00a01021 	move	v0,a1
a0801238:	000218c0 	sll	v1,v0,0x3
a080123c:	00031080 	sll	v0,v1,0x2
a0801240:	00431023 	subu	v0,v0,v1
a0801244:	00021900 	sll	v1,v0,0x4
a0801248:	00621023 	subu	v0,v1,v0
a080124c:	00c21021 	addu	v0,a2,v0
a0801250:	ac44014c 	sw	a0,332(v0)
a0801254:	3c02a080 	lui	v0,0xa080
a0801258:	8c4242f0 	lw	v0,17136(v0)
a080125c:	3c04a080 	lui	a0,0xa080
a0801260:	000218c0 	sll	v1,v0,0x3
a0801264:	00031080 	sll	v0,v1,0x2
a0801268:	00431023 	subu	v0,v0,v1
a080126c:	00021900 	sll	v1,v0,0x4
a0801270:	00621823 	subu	v1,v1,v0
a0801274:	248266b0 	addiu	v0,a0,26288
a0801278:	00621821 	addu	v1,v1,v0
a080127c:	24020002 	li	v0,2
a0801280:	ac620150 	sw	v0,336(v1)
a0801284:	3c02a080 	lui	v0,0xa080
a0801288:	8c4642f0 	lw	a2,17136(v0)
a080128c:	3c02a080 	lui	v0,0xa080
a0801290:	8c4442f0 	lw	a0,17136(v0)
a0801294:	3c05a080 	lui	a1,0xa080
a0801298:	00801021 	move	v0,a0
a080129c:	000218c0 	sll	v1,v0,0x3
a08012a0:	00031080 	sll	v0,v1,0x2
a08012a4:	00431023 	subu	v0,v0,v1
a08012a8:	00021900 	sll	v1,v0,0x4
a08012ac:	00621823 	subu	v1,v1,v0
a08012b0:	24a266b0 	addiu	v0,a1,26288
a08012b4:	00621821 	addu	v1,v1,v0
a08012b8:	24020001 	li	v0,1
a08012bc:	ac620160 	sw	v0,352(v1)
a08012c0:	3c05a080 	lui	a1,0xa080
a08012c4:	00801021 	move	v0,a0
a08012c8:	000218c0 	sll	v1,v0,0x3
a08012cc:	00031080 	sll	v0,v1,0x2
a08012d0:	00431023 	subu	v0,v0,v1
a08012d4:	00021900 	sll	v1,v0,0x4
a08012d8:	00621823 	subu	v1,v1,v0
a08012dc:	24a266b0 	addiu	v0,a1,26288
a08012e0:	00621021 	addu	v0,v1,v0
a08012e4:	8c440160 	lw	a0,352(v0)
a08012e8:	3c02a080 	lui	v0,0xa080
a08012ec:	244566b0 	addiu	a1,v0,26288
a08012f0:	00c01021 	move	v0,a2
a08012f4:	000218c0 	sll	v1,v0,0x3
a08012f8:	00031080 	sll	v0,v1,0x2
a08012fc:	00431023 	subu	v0,v0,v1
a0801300:	00021900 	sll	v1,v0,0x4
a0801304:	00621023 	subu	v0,v1,v0
a0801308:	00a21021 	addu	v0,a1,v0
a080130c:	ac44015c 	sw	a0,348(v0)
a0801310:	3c02a080 	lui	v0,0xa080
a0801314:	8c4242f0 	lw	v0,17136(v0)
a0801318:	000218c0 	sll	v1,v0,0x3
a080131c:	00031080 	sll	v0,v1,0x2
a0801320:	00431023 	subu	v0,v0,v1
a0801324:	00021900 	sll	v1,v0,0x4
a0801328:	00621823 	subu	v1,v1,v0
a080132c:	3c02a080 	lui	v0,0xa080
a0801330:	244266b0 	addiu	v0,v0,26288
a0801334:	00621821 	addu	v1,v1,v0
a0801338:	3c02a080 	lui	v0,0xa080
a080133c:	24444624 	addiu	a0,v0,17956
a0801340:	00602821 	move	a1,v1
a0801344:	0c2008de 	jal	a0802378 <queue_push>
a0801348:	00000000 	nop
a080134c:	8fc20018 	lw	v0,24(s8)
a0801350:	24420001 	addiu	v0,v0,1
a0801354:	afc20018 	sw	v0,24(s8)
a0801358:	3c02a080 	lui	v0,0xa080
a080135c:	8c4242f0 	lw	v0,17136(v0)
a0801360:	24430001 	addiu	v1,v0,1
a0801364:	3c02a080 	lui	v0,0xa080
a0801368:	ac4342f0 	sw	v1,17136(v0)
a080136c:	3c02a080 	lui	v0,0xa080
a0801370:	8c4343bc 	lw	v1,17340(v0)
a0801374:	8fc20018 	lw	v0,24(s8)
a0801378:	0043102a 	slt	v0,v0,v1
a080137c:	1440ff26 	bnez	v0,a0801018 <init_pcb+0x328>
a0801380:	00000000 	nop
a0801384:	3c02a080 	lui	v0,0xa080
a0801388:	8c434410 	lw	v1,17424(v0)
a080138c:	8fc20010 	lw	v0,16(s8)
a0801390:	00431021 	addu	v0,v0,v1
a0801394:	afc20010 	sw	v0,16(s8)
a0801398:	afc00018 	sw	zero,24(s8)
a080139c:	082005be 	j	a08016f8 <init_pcb+0xa08>
a08013a0:	00000000 	nop
a08013a4:	3c02a080 	lui	v0,0xa080
a08013a8:	8c4242f0 	lw	v0,17136(v0)
a08013ac:	000218c0 	sll	v1,v0,0x3
a08013b0:	00031080 	sll	v0,v1,0x2
a08013b4:	00431023 	subu	v0,v0,v1
a08013b8:	00021900 	sll	v1,v0,0x4
a08013bc:	00621823 	subu	v1,v1,v0
a08013c0:	3c02a080 	lui	v0,0xa080
a08013c4:	244266b0 	addiu	v0,v0,26288
a08013c8:	00621021 	addu	v0,v1,v0
a08013cc:	00402021 	move	a0,v0
a08013d0:	00002821 	move	a1,zero
a08013d4:	24060168 	li	a2,360
a08013d8:	0c200ae7 	jal	a0802b9c <memset>
a08013dc:	00000000 	nop
a08013e0:	3c02a080 	lui	v0,0xa080
a08013e4:	8c4742f0 	lw	a3,17136(v0)
a08013e8:	3c02a080 	lui	v0,0xa080
a08013ec:	8c4442f0 	lw	a0,17136(v0)
a08013f0:	8fc50014 	lw	a1,20(s8)
a08013f4:	3c06a080 	lui	a2,0xa080
a08013f8:	00801021 	move	v0,a0
a08013fc:	000218c0 	sll	v1,v0,0x3
a0801400:	00031080 	sll	v0,v1,0x2
a0801404:	00431023 	subu	v0,v0,v1
a0801408:	00021900 	sll	v1,v0,0x4
a080140c:	00621823 	subu	v1,v1,v0
a0801410:	24c266b0 	addiu	v0,a2,26288
a0801414:	00621021 	addu	v0,v1,v0
a0801418:	ac450138 	sw	a1,312(v0)
a080141c:	3c05a080 	lui	a1,0xa080
a0801420:	00801021 	move	v0,a0
a0801424:	000218c0 	sll	v1,v0,0x3
a0801428:	00031080 	sll	v0,v1,0x2
a080142c:	00431023 	subu	v0,v0,v1
a0801430:	00021900 	sll	v1,v0,0x4
a0801434:	00621823 	subu	v1,v1,v0
a0801438:	24a266b0 	addiu	v0,a1,26288
a080143c:	00621021 	addu	v0,v1,v0
a0801440:	8c440138 	lw	a0,312(v0)
a0801444:	3c05a080 	lui	a1,0xa080
a0801448:	00e01021 	move	v0,a3
a080144c:	000218c0 	sll	v1,v0,0x3
a0801450:	00031080 	sll	v0,v1,0x2
a0801454:	00431023 	subu	v0,v0,v1
a0801458:	00021900 	sll	v1,v0,0x4
a080145c:	00621823 	subu	v1,v1,v0
a0801460:	24a266b0 	addiu	v0,a1,26288
a0801464:	00621021 	addu	v0,v1,v0
a0801468:	ac440074 	sw	a0,116(v0)
a080146c:	8fc20014 	lw	v0,20(s8)
a0801470:	2442d000 	addiu	v0,v0,-12288
a0801474:	afc20014 	sw	v0,20(s8)
a0801478:	3c02a080 	lui	v0,0xa080
a080147c:	8c4742f0 	lw	a3,17136(v0)
a0801480:	3c02a080 	lui	v0,0xa080
a0801484:	8c4442f0 	lw	a0,17136(v0)
a0801488:	8fc50014 	lw	a1,20(s8)
a080148c:	3c02a080 	lui	v0,0xa080
a0801490:	244666b0 	addiu	a2,v0,26288
a0801494:	00801021 	move	v0,a0
a0801498:	000218c0 	sll	v1,v0,0x3
a080149c:	00031080 	sll	v0,v1,0x2
a08014a0:	00431023 	subu	v0,v0,v1
a08014a4:	00021900 	sll	v1,v0,0x4
a08014a8:	00621023 	subu	v0,v1,v0
a08014ac:	00c21021 	addu	v0,a2,v0
a08014b0:	ac45013c 	sw	a1,316(v0)
a08014b4:	3c02a080 	lui	v0,0xa080
a08014b8:	244566b0 	addiu	a1,v0,26288
a08014bc:	00801021 	move	v0,a0
a08014c0:	000218c0 	sll	v1,v0,0x3
a08014c4:	00031080 	sll	v0,v1,0x2
a08014c8:	00431023 	subu	v0,v0,v1
a08014cc:	00021900 	sll	v1,v0,0x4
a08014d0:	00621023 	subu	v0,v1,v0
a08014d4:	00a21021 	addu	v0,a1,v0
a08014d8:	8c44013c 	lw	a0,316(v0)
a08014dc:	3c02a080 	lui	v0,0xa080
a08014e0:	244566b0 	addiu	a1,v0,26288
a08014e4:	00e01021 	move	v0,a3
a08014e8:	000218c0 	sll	v1,v0,0x3
a08014ec:	00031080 	sll	v0,v1,0x2
a08014f0:	00431023 	subu	v0,v0,v1
a08014f4:	00021900 	sll	v1,v0,0x4
a08014f8:	00621023 	subu	v0,v1,v0
a08014fc:	00a21021 	addu	v0,a1,v0
a0801500:	ac440110 	sw	a0,272(v0)
a0801504:	8fc20014 	lw	v0,20(s8)
a0801508:	2442d000 	addiu	v0,v0,-12288
a080150c:	afc20014 	sw	v0,20(s8)
a0801510:	3c02a080 	lui	v0,0xa080
a0801514:	8c4542f0 	lw	a1,17136(v0)
a0801518:	8fc20018 	lw	v0,24(s8)
a080151c:	3c03a080 	lui	v1,0xa080
a0801520:	00022080 	sll	a0,v0,0x2
a0801524:	246243d0 	addiu	v0,v1,17360
a0801528:	00821021 	addu	v0,a0,v0
a080152c:	8c420000 	lw	v0,0(v0)
a0801530:	8c440000 	lw	a0,0(v0)
a0801534:	3c02a080 	lui	v0,0xa080
a0801538:	244666b0 	addiu	a2,v0,26288
a080153c:	00a01021 	move	v0,a1
a0801540:	000218c0 	sll	v1,v0,0x3
a0801544:	00031080 	sll	v0,v1,0x2
a0801548:	00431023 	subu	v0,v0,v1
a080154c:	00021900 	sll	v1,v0,0x4
a0801550:	00621023 	subu	v0,v1,v0
a0801554:	00c21021 	addu	v0,a2,v0
a0801558:	ac440130 	sw	a0,304(v0)
a080155c:	3c02a080 	lui	v0,0xa080
a0801560:	8c4342f0 	lw	v1,17136(v0)
a0801564:	3c02a080 	lui	v0,0xa080
a0801568:	8c4442f0 	lw	a0,17136(v0)
a080156c:	3c05a080 	lui	a1,0xa080
a0801570:	00601021 	move	v0,v1
a0801574:	000218c0 	sll	v1,v0,0x3
a0801578:	00031080 	sll	v0,v1,0x2
a080157c:	00431023 	subu	v0,v0,v1
a0801580:	00021900 	sll	v1,v0,0x4
a0801584:	00621823 	subu	v1,v1,v0
a0801588:	24a266b0 	addiu	v0,a1,26288
a080158c:	00621021 	addu	v0,v1,v0
a0801590:	ac440148 	sw	a0,328(v0)
a0801594:	3c02a080 	lui	v0,0xa080
a0801598:	8c4542f0 	lw	a1,17136(v0)
a080159c:	8fc20018 	lw	v0,24(s8)
a08015a0:	3c03a080 	lui	v1,0xa080
a08015a4:	00022080 	sll	a0,v0,0x2
a08015a8:	246243d0 	addiu	v0,v1,17360
a08015ac:	00821021 	addu	v0,a0,v0
a08015b0:	8c420000 	lw	v0,0(v0)
a08015b4:	8c440004 	lw	a0,4(v0)
a08015b8:	3c02a080 	lui	v0,0xa080
a08015bc:	244666b0 	addiu	a2,v0,26288
a08015c0:	00a01021 	move	v0,a1
a08015c4:	000218c0 	sll	v1,v0,0x3
a08015c8:	00031080 	sll	v0,v1,0x2
a08015cc:	00431023 	subu	v0,v0,v1
a08015d0:	00021900 	sll	v1,v0,0x4
a08015d4:	00621023 	subu	v0,v1,v0
a08015d8:	00c21021 	addu	v0,a2,v0
a08015dc:	ac44014c 	sw	a0,332(v0)
a08015e0:	3c02a080 	lui	v0,0xa080
a08015e4:	8c4242f0 	lw	v0,17136(v0)
a08015e8:	3c04a080 	lui	a0,0xa080
a08015ec:	000218c0 	sll	v1,v0,0x3
a08015f0:	00031080 	sll	v0,v1,0x2
a08015f4:	00431023 	subu	v0,v0,v1
a08015f8:	00021900 	sll	v1,v0,0x4
a08015fc:	00621823 	subu	v1,v1,v0
a0801600:	248266b0 	addiu	v0,a0,26288
a0801604:	00621821 	addu	v1,v1,v0
a0801608:	24020002 	li	v0,2
a080160c:	ac620150 	sw	v0,336(v1)
a0801610:	3c02a080 	lui	v0,0xa080
a0801614:	8c4642f0 	lw	a2,17136(v0)
a0801618:	3c02a080 	lui	v0,0xa080
a080161c:	8c4442f0 	lw	a0,17136(v0)
a0801620:	3c05a080 	lui	a1,0xa080
a0801624:	00801021 	move	v0,a0
a0801628:	000218c0 	sll	v1,v0,0x3
a080162c:	00031080 	sll	v0,v1,0x2
a0801630:	00431023 	subu	v0,v0,v1
a0801634:	00021900 	sll	v1,v0,0x4
a0801638:	00621823 	subu	v1,v1,v0
a080163c:	24a266b0 	addiu	v0,a1,26288
a0801640:	00621821 	addu	v1,v1,v0
a0801644:	24020001 	li	v0,1
a0801648:	ac620160 	sw	v0,352(v1)
a080164c:	3c05a080 	lui	a1,0xa080
a0801650:	00801021 	move	v0,a0
a0801654:	000218c0 	sll	v1,v0,0x3
a0801658:	00031080 	sll	v0,v1,0x2
a080165c:	00431023 	subu	v0,v0,v1
a0801660:	00021900 	sll	v1,v0,0x4
a0801664:	00621823 	subu	v1,v1,v0
a0801668:	24a266b0 	addiu	v0,a1,26288
a080166c:	00621021 	addu	v0,v1,v0
a0801670:	8c440160 	lw	a0,352(v0)
a0801674:	3c02a080 	lui	v0,0xa080
a0801678:	244566b0 	addiu	a1,v0,26288
a080167c:	00c01021 	move	v0,a2
a0801680:	000218c0 	sll	v1,v0,0x3
a0801684:	00031080 	sll	v0,v1,0x2
a0801688:	00431023 	subu	v0,v0,v1
a080168c:	00021900 	sll	v1,v0,0x4
a0801690:	00621023 	subu	v0,v1,v0
a0801694:	00a21021 	addu	v0,a1,v0
a0801698:	ac44015c 	sw	a0,348(v0)
a080169c:	3c02a080 	lui	v0,0xa080
a08016a0:	8c4242f0 	lw	v0,17136(v0)
a08016a4:	000218c0 	sll	v1,v0,0x3
a08016a8:	00031080 	sll	v0,v1,0x2
a08016ac:	00431023 	subu	v0,v0,v1
a08016b0:	00021900 	sll	v1,v0,0x4
a08016b4:	00621823 	subu	v1,v1,v0
a08016b8:	3c02a080 	lui	v0,0xa080
a08016bc:	244266b0 	addiu	v0,v0,26288
a08016c0:	00621821 	addu	v1,v1,v0
a08016c4:	3c02a080 	lui	v0,0xa080
a08016c8:	24444624 	addiu	a0,v0,17956
a08016cc:	00602821 	move	a1,v1
a08016d0:	0c2008de 	jal	a0802378 <queue_push>
a08016d4:	00000000 	nop
a08016d8:	8fc20018 	lw	v0,24(s8)
a08016dc:	24420001 	addiu	v0,v0,1
a08016e0:	afc20018 	sw	v0,24(s8)
a08016e4:	3c02a080 	lui	v0,0xa080
a08016e8:	8c4242f0 	lw	v0,17136(v0)
a08016ec:	24430001 	addiu	v1,v0,1
a08016f0:	3c02a080 	lui	v0,0xa080
a08016f4:	ac4342f0 	sw	v1,17136(v0)
a08016f8:	3c02a080 	lui	v0,0xa080
a08016fc:	8c434410 	lw	v1,17424(v0)
a0801700:	8fc20018 	lw	v0,24(s8)
a0801704:	0043102a 	slt	v0,v0,v1
a0801708:	1440ff26 	bnez	v0,a08013a4 <init_pcb+0x6b4>
a080170c:	00000000 	nop
a0801710:	3c02a080 	lui	v0,0xa080
a0801714:	8c43446c 	lw	v1,17516(v0)
a0801718:	8fc20010 	lw	v0,16(s8)
a080171c:	00431021 	addu	v0,v0,v1
a0801720:	afc20010 	sw	v0,16(s8)
a0801724:	afc00018 	sw	zero,24(s8)
a0801728:	082006a1 	j	a0801a84 <init_pcb+0xd94>
a080172c:	00000000 	nop
a0801730:	3c02a080 	lui	v0,0xa080
a0801734:	8c4242f0 	lw	v0,17136(v0)
a0801738:	000218c0 	sll	v1,v0,0x3
a080173c:	00031080 	sll	v0,v1,0x2
a0801740:	00431023 	subu	v0,v0,v1
a0801744:	00021900 	sll	v1,v0,0x4
a0801748:	00621823 	subu	v1,v1,v0
a080174c:	3c02a080 	lui	v0,0xa080
a0801750:	244266b0 	addiu	v0,v0,26288
a0801754:	00621021 	addu	v0,v1,v0
a0801758:	00402021 	move	a0,v0
a080175c:	00002821 	move	a1,zero
a0801760:	24060168 	li	a2,360
a0801764:	0c200ae7 	jal	a0802b9c <memset>
a0801768:	00000000 	nop
a080176c:	3c02a080 	lui	v0,0xa080
a0801770:	8c4742f0 	lw	a3,17136(v0)
a0801774:	3c02a080 	lui	v0,0xa080
a0801778:	8c4442f0 	lw	a0,17136(v0)
a080177c:	8fc50014 	lw	a1,20(s8)
a0801780:	3c06a080 	lui	a2,0xa080
a0801784:	00801021 	move	v0,a0
a0801788:	000218c0 	sll	v1,v0,0x3
a080178c:	00031080 	sll	v0,v1,0x2
a0801790:	00431023 	subu	v0,v0,v1
a0801794:	00021900 	sll	v1,v0,0x4
a0801798:	00621823 	subu	v1,v1,v0
a080179c:	24c266b0 	addiu	v0,a2,26288
a08017a0:	00621021 	addu	v0,v1,v0
a08017a4:	ac450138 	sw	a1,312(v0)
a08017a8:	3c05a080 	lui	a1,0xa080
a08017ac:	00801021 	move	v0,a0
a08017b0:	000218c0 	sll	v1,v0,0x3
a08017b4:	00031080 	sll	v0,v1,0x2
a08017b8:	00431023 	subu	v0,v0,v1
a08017bc:	00021900 	sll	v1,v0,0x4
a08017c0:	00621823 	subu	v1,v1,v0
a08017c4:	24a266b0 	addiu	v0,a1,26288
a08017c8:	00621021 	addu	v0,v1,v0
a08017cc:	8c440138 	lw	a0,312(v0)
a08017d0:	3c05a080 	lui	a1,0xa080
a08017d4:	00e01021 	move	v0,a3
a08017d8:	000218c0 	sll	v1,v0,0x3
a08017dc:	00031080 	sll	v0,v1,0x2
a08017e0:	00431023 	subu	v0,v0,v1
a08017e4:	00021900 	sll	v1,v0,0x4
a08017e8:	00621823 	subu	v1,v1,v0
a08017ec:	24a266b0 	addiu	v0,a1,26288
a08017f0:	00621021 	addu	v0,v1,v0
a08017f4:	ac440074 	sw	a0,116(v0)
a08017f8:	8fc20014 	lw	v0,20(s8)
a08017fc:	2442d000 	addiu	v0,v0,-12288
a0801800:	afc20014 	sw	v0,20(s8)
a0801804:	3c02a080 	lui	v0,0xa080
a0801808:	8c4742f0 	lw	a3,17136(v0)
a080180c:	3c02a080 	lui	v0,0xa080
a0801810:	8c4442f0 	lw	a0,17136(v0)
a0801814:	8fc50014 	lw	a1,20(s8)
a0801818:	3c02a080 	lui	v0,0xa080
a080181c:	244666b0 	addiu	a2,v0,26288
a0801820:	00801021 	move	v0,a0
a0801824:	000218c0 	sll	v1,v0,0x3
a0801828:	00031080 	sll	v0,v1,0x2
a080182c:	00431023 	subu	v0,v0,v1
a0801830:	00021900 	sll	v1,v0,0x4
a0801834:	00621023 	subu	v0,v1,v0
a0801838:	00c21021 	addu	v0,a2,v0
a080183c:	ac45013c 	sw	a1,316(v0)
a0801840:	3c02a080 	lui	v0,0xa080
a0801844:	244566b0 	addiu	a1,v0,26288
a0801848:	00801021 	move	v0,a0
a080184c:	000218c0 	sll	v1,v0,0x3
a0801850:	00031080 	sll	v0,v1,0x2
a0801854:	00431023 	subu	v0,v0,v1
a0801858:	00021900 	sll	v1,v0,0x4
a080185c:	00621023 	subu	v0,v1,v0
a0801860:	00a21021 	addu	v0,a1,v0
a0801864:	8c44013c 	lw	a0,316(v0)
a0801868:	3c02a080 	lui	v0,0xa080
a080186c:	244566b0 	addiu	a1,v0,26288
a0801870:	00e01021 	move	v0,a3
a0801874:	000218c0 	sll	v1,v0,0x3
a0801878:	00031080 	sll	v0,v1,0x2
a080187c:	00431023 	subu	v0,v0,v1
a0801880:	00021900 	sll	v1,v0,0x4
a0801884:	00621023 	subu	v0,v1,v0
a0801888:	00a21021 	addu	v0,a1,v0
a080188c:	ac440110 	sw	a0,272(v0)
a0801890:	8fc20014 	lw	v0,20(s8)
a0801894:	2442d000 	addiu	v0,v0,-12288
a0801898:	afc20014 	sw	v0,20(s8)
a080189c:	3c02a080 	lui	v0,0xa080
a08018a0:	8c4542f0 	lw	a1,17136(v0)
a08018a4:	8fc20018 	lw	v0,24(s8)
a08018a8:	3c03a080 	lui	v1,0xa080
a08018ac:	00022080 	sll	a0,v0,0x2
a08018b0:	2462442c 	addiu	v0,v1,17452
a08018b4:	00821021 	addu	v0,a0,v0
a08018b8:	8c420000 	lw	v0,0(v0)
a08018bc:	8c440000 	lw	a0,0(v0)
a08018c0:	3c02a080 	lui	v0,0xa080
a08018c4:	244666b0 	addiu	a2,v0,26288
a08018c8:	00a01021 	move	v0,a1
a08018cc:	000218c0 	sll	v1,v0,0x3
a08018d0:	00031080 	sll	v0,v1,0x2
a08018d4:	00431023 	subu	v0,v0,v1
a08018d8:	00021900 	sll	v1,v0,0x4
a08018dc:	00621023 	subu	v0,v1,v0
a08018e0:	00c21021 	addu	v0,a2,v0
a08018e4:	ac440130 	sw	a0,304(v0)
a08018e8:	3c02a080 	lui	v0,0xa080
a08018ec:	8c4342f0 	lw	v1,17136(v0)
a08018f0:	3c02a080 	lui	v0,0xa080
a08018f4:	8c4442f0 	lw	a0,17136(v0)
a08018f8:	3c05a080 	lui	a1,0xa080
a08018fc:	00601021 	move	v0,v1
a0801900:	000218c0 	sll	v1,v0,0x3
a0801904:	00031080 	sll	v0,v1,0x2
a0801908:	00431023 	subu	v0,v0,v1
a080190c:	00021900 	sll	v1,v0,0x4
a0801910:	00621823 	subu	v1,v1,v0
a0801914:	24a266b0 	addiu	v0,a1,26288
a0801918:	00621021 	addu	v0,v1,v0
a080191c:	ac440148 	sw	a0,328(v0)
a0801920:	3c02a080 	lui	v0,0xa080
a0801924:	8c4542f0 	lw	a1,17136(v0)
a0801928:	8fc20018 	lw	v0,24(s8)
a080192c:	3c03a080 	lui	v1,0xa080
a0801930:	00022080 	sll	a0,v0,0x2
a0801934:	2462442c 	addiu	v0,v1,17452
a0801938:	00821021 	addu	v0,a0,v0
a080193c:	8c420000 	lw	v0,0(v0)
a0801940:	8c440004 	lw	a0,4(v0)
a0801944:	3c02a080 	lui	v0,0xa080
a0801948:	244666b0 	addiu	a2,v0,26288
a080194c:	00a01021 	move	v0,a1
a0801950:	000218c0 	sll	v1,v0,0x3
a0801954:	00031080 	sll	v0,v1,0x2
a0801958:	00431023 	subu	v0,v0,v1
a080195c:	00021900 	sll	v1,v0,0x4
a0801960:	00621023 	subu	v0,v1,v0
a0801964:	00c21021 	addu	v0,a2,v0
a0801968:	ac44014c 	sw	a0,332(v0)
a080196c:	3c02a080 	lui	v0,0xa080
a0801970:	8c4242f0 	lw	v0,17136(v0)
a0801974:	3c04a080 	lui	a0,0xa080
a0801978:	000218c0 	sll	v1,v0,0x3
a080197c:	00031080 	sll	v0,v1,0x2
a0801980:	00431023 	subu	v0,v0,v1
a0801984:	00021900 	sll	v1,v0,0x4
a0801988:	00621823 	subu	v1,v1,v0
a080198c:	248266b0 	addiu	v0,a0,26288
a0801990:	00621821 	addu	v1,v1,v0
a0801994:	24020002 	li	v0,2
a0801998:	ac620150 	sw	v0,336(v1)
a080199c:	3c02a080 	lui	v0,0xa080
a08019a0:	8c4642f0 	lw	a2,17136(v0)
a08019a4:	3c02a080 	lui	v0,0xa080
a08019a8:	8c4442f0 	lw	a0,17136(v0)
a08019ac:	3c05a080 	lui	a1,0xa080
a08019b0:	00801021 	move	v0,a0
a08019b4:	000218c0 	sll	v1,v0,0x3
a08019b8:	00031080 	sll	v0,v1,0x2
a08019bc:	00431023 	subu	v0,v0,v1
a08019c0:	00021900 	sll	v1,v0,0x4
a08019c4:	00621823 	subu	v1,v1,v0
a08019c8:	24a266b0 	addiu	v0,a1,26288
a08019cc:	00621821 	addu	v1,v1,v0
a08019d0:	24020001 	li	v0,1
a08019d4:	ac620160 	sw	v0,352(v1)
a08019d8:	3c05a080 	lui	a1,0xa080
a08019dc:	00801021 	move	v0,a0
a08019e0:	000218c0 	sll	v1,v0,0x3
a08019e4:	00031080 	sll	v0,v1,0x2
a08019e8:	00431023 	subu	v0,v0,v1
a08019ec:	00021900 	sll	v1,v0,0x4
a08019f0:	00621823 	subu	v1,v1,v0
a08019f4:	24a266b0 	addiu	v0,a1,26288
a08019f8:	00621021 	addu	v0,v1,v0
a08019fc:	8c440160 	lw	a0,352(v0)
a0801a00:	3c02a080 	lui	v0,0xa080
a0801a04:	244566b0 	addiu	a1,v0,26288
a0801a08:	00c01021 	move	v0,a2
a0801a0c:	000218c0 	sll	v1,v0,0x3
a0801a10:	00031080 	sll	v0,v1,0x2
a0801a14:	00431023 	subu	v0,v0,v1
a0801a18:	00021900 	sll	v1,v0,0x4
a0801a1c:	00621023 	subu	v0,v1,v0
a0801a20:	00a21021 	addu	v0,a1,v0
a0801a24:	ac44015c 	sw	a0,348(v0)
a0801a28:	3c02a080 	lui	v0,0xa080
a0801a2c:	8c4242f0 	lw	v0,17136(v0)
a0801a30:	000218c0 	sll	v1,v0,0x3
a0801a34:	00031080 	sll	v0,v1,0x2
a0801a38:	00431023 	subu	v0,v0,v1
a0801a3c:	00021900 	sll	v1,v0,0x4
a0801a40:	00621823 	subu	v1,v1,v0
a0801a44:	3c02a080 	lui	v0,0xa080
a0801a48:	244266b0 	addiu	v0,v0,26288
a0801a4c:	00621821 	addu	v1,v1,v0
a0801a50:	3c02a080 	lui	v0,0xa080
a0801a54:	24444624 	addiu	a0,v0,17956
a0801a58:	00602821 	move	a1,v1
a0801a5c:	0c2008de 	jal	a0802378 <queue_push>
a0801a60:	00000000 	nop
a0801a64:	8fc20018 	lw	v0,24(s8)
a0801a68:	24420001 	addiu	v0,v0,1
a0801a6c:	afc20018 	sw	v0,24(s8)
a0801a70:	3c02a080 	lui	v0,0xa080
a0801a74:	8c4242f0 	lw	v0,17136(v0)
a0801a78:	24430001 	addiu	v1,v0,1
a0801a7c:	3c02a080 	lui	v0,0xa080
a0801a80:	ac4342f0 	sw	v1,17136(v0)
a0801a84:	3c02a080 	lui	v0,0xa080
a0801a88:	8c43446c 	lw	v1,17516(v0)
a0801a8c:	8fc20018 	lw	v0,24(s8)
a0801a90:	0043102a 	slt	v0,v0,v1
a0801a94:	1440ff26 	bnez	v0,a0801730 <init_pcb+0xa40>
a0801a98:	00000000 	nop
a0801a9c:	3c02a080 	lui	v0,0xa080
a0801aa0:	244366b0 	addiu	v1,v0,26288
a0801aa4:	24020002 	li	v0,2
a0801aa8:	ac620ca0 	sw	v0,3232(v1)
a0801aac:	3c02a080 	lui	v0,0xa080
a0801ab0:	244266b0 	addiu	v0,v0,26288
a0801ab4:	8c430ca0 	lw	v1,3232(v0)
a0801ab8:	3c02a080 	lui	v0,0xa080
a0801abc:	244266b0 	addiu	v0,v0,26288
a0801ac0:	ac430c9c 	sw	v1,3228(v0)
a0801ac4:	3c02a080 	lui	v0,0xa080
a0801ac8:	244466b0 	addiu	a0,v0,26288
a0801acc:	00002821 	move	a1,zero
a0801ad0:	24060168 	li	a2,360
a0801ad4:	0c200ae7 	jal	a0802b9c <memset>
a0801ad8:	00000000 	nop
a0801adc:	3c02a080 	lui	v0,0xa080
a0801ae0:	244266b0 	addiu	v0,v0,26288
a0801ae4:	ac400148 	sw	zero,328(v0)
a0801ae8:	3c02a080 	lui	v0,0xa080
a0801aec:	244366b0 	addiu	v1,v0,26288
a0801af0:	24020001 	li	v0,1
a0801af4:	ac620150 	sw	v0,336(v1)
a0801af8:	3c03a080 	lui	v1,0xa080
a0801afc:	3c02a080 	lui	v0,0xa080
a0801b00:	244266b0 	addiu	v0,v0,26288
a0801b04:	ac624618 	sw	v0,17944(v1)
a0801b08:	03c0e821 	move	sp,s8
a0801b0c:	8fbf0024 	lw	ra,36(sp)
a0801b10:	8fbe0020 	lw	s8,32(sp)
a0801b14:	27bd0028 	addiu	sp,sp,40
a0801b18:	03e00008 	jr	ra
a0801b1c:	00000000 	nop

a0801b20 <init_exception_handler>:
a0801b20:	27bdfff8 	addiu	sp,sp,-8
a0801b24:	afbe0004 	sw	s8,4(sp)
a0801b28:	03a0f021 	move	s8,sp
a0801b2c:	03c0e821 	move	sp,s8
a0801b30:	8fbe0004 	lw	s8,4(sp)
a0801b34:	27bd0008 	addiu	sp,sp,8
a0801b38:	03e00008 	jr	ra
a0801b3c:	00000000 	nop

a0801b40 <init_exception>:
a0801b40:	27bdffd8 	addiu	sp,sp,-40
a0801b44:	afbf0024 	sw	ra,36(sp)
a0801b48:	afbe0020 	sw	s8,32(sp)
a0801b4c:	03a0f021 	move	s8,sp
a0801b50:	0c2000b9 	jal	a08002e4 <reset_CP0_status>
a0801b54:	00000000 	nop
a0801b58:	3c02a080 	lui	v0,0xa080
a0801b5c:	244204c0 	addiu	v0,v0,1216
a0801b60:	afc20018 	sw	v0,24(s8)
a0801b64:	3c02a080 	lui	v0,0xa080
a0801b68:	244205b0 	addiu	v0,v0,1456
a0801b6c:	afc20014 	sw	v0,20(s8)
a0801b70:	8fc30014 	lw	v1,20(s8)
a0801b74:	8fc20018 	lw	v0,24(s8)
a0801b78:	00621023 	subu	v0,v1,v0
a0801b7c:	afc20010 	sw	v0,16(s8)
a0801b80:	3c028000 	lui	v0,0x8000
a0801b84:	34440180 	ori	a0,v0,0x180
a0801b88:	8fc50018 	lw	a1,24(s8)
a0801b8c:	8fc60010 	lw	a2,16(s8)
a0801b90:	0c200aca 	jal	a0802b28 <memcpy>
a0801b94:	00000000 	nop
a0801b98:	03c0e821 	move	sp,s8
a0801b9c:	8fbf0024 	lw	ra,36(sp)
a0801ba0:	8fbe0020 	lw	s8,32(sp)
a0801ba4:	27bd0028 	addiu	sp,sp,40
a0801ba8:	03e00008 	jr	ra
a0801bac:	00000000 	nop

a0801bb0 <init_syscall>:
a0801bb0:	27bdfff8 	addiu	sp,sp,-8
a0801bb4:	afbe0004 	sw	s8,4(sp)
a0801bb8:	03a0f021 	move	s8,sp
a0801bbc:	03c0e821 	move	sp,s8
a0801bc0:	8fbe0004 	lw	s8,4(sp)
a0801bc4:	27bd0008 	addiu	sp,sp,8
a0801bc8:	03e00008 	jr	ra
a0801bcc:	00000000 	nop

a0801bd0 <irq_timer>:
a0801bd0:	27bdffe8 	addiu	sp,sp,-24
a0801bd4:	afbf0014 	sw	ra,20(sp)
a0801bd8:	afbe0010 	sw	s8,16(sp)
a0801bdc:	03a0f021 	move	s8,sp
a0801be0:	0c2000d9 	jal	a0800364 <do_scheduler>
a0801be4:	00000000 	nop
a0801be8:	0c2000c7 	jal	a080031c <set_COMPARE_slice>
a0801bec:	00000000 	nop
a0801bf0:	3c02a080 	lui	v0,0xa080
a0801bf4:	8c436590 	lw	v1,26000(v0)
a0801bf8:	3c020001 	lui	v0,0x1
a0801bfc:	344286a0 	ori	v0,v0,0x86a0
a0801c00:	00621821 	addu	v1,v1,v0
a0801c04:	3c02a080 	lui	v0,0xa080
a0801c08:	ac436590 	sw	v1,26000(v0)
a0801c0c:	0c2002d6 	jal	a0800b58 <screen_reflush>
a0801c10:	00000000 	nop
a0801c14:	03c0e821 	move	sp,s8
a0801c18:	8fbf0014 	lw	ra,20(sp)
a0801c1c:	8fbe0010 	lw	s8,16(sp)
a0801c20:	27bd0018 	addiu	sp,sp,24
a0801c24:	03e00008 	jr	ra
a0801c28:	00000000 	nop

a0801c2c <other_exception_handler>:
a0801c2c:	27bdfff8 	addiu	sp,sp,-8
a0801c30:	afbe0004 	sw	s8,4(sp)
a0801c34:	03a0f021 	move	s8,sp
a0801c38:	03c0e821 	move	sp,s8
a0801c3c:	8fbe0004 	lw	s8,4(sp)
a0801c40:	27bd0008 	addiu	sp,sp,8
a0801c44:	03e00008 	jr	ra
a0801c48:	00000000 	nop

a0801c4c <interrupt_helper>:
a0801c4c:	27bdffe8 	addiu	sp,sp,-24
a0801c50:	afbf0014 	sw	ra,20(sp)
a0801c54:	afbe0010 	sw	s8,16(sp)
a0801c58:	03a0f021 	move	s8,sp
a0801c5c:	afc40018 	sw	a0,24(s8)
a0801c60:	afc5001c 	sw	a1,28(s8)
a0801c64:	8fc20018 	lw	v0,24(s8)
a0801c68:	3042007c 	andi	v0,v0,0x7c
a0801c6c:	10400005 	beqz	v0,a0801c84 <interrupt_helper+0x38>
a0801c70:	00000000 	nop
a0801c74:	3c02a080 	lui	v0,0xa080
a0801c78:	24444060 	addiu	a0,v0,16480
a0801c7c:	0c200d69 	jal	a08035a4 <printk>
a0801c80:	00000000 	nop
a0801c84:	8fc2001c 	lw	v0,28(s8)
a0801c88:	3043ff00 	andi	v1,v0,0xff00
a0801c8c:	34028000 	li	v0,0x8000
a0801c90:	14620005 	bne	v1,v0,a0801ca8 <interrupt_helper+0x5c>
a0801c94:	00000000 	nop
a0801c98:	0c2006f4 	jal	a0801bd0 <irq_timer>
a0801c9c:	00000000 	nop
a0801ca0:	0820072c 	j	a0801cb0 <interrupt_helper+0x64>
a0801ca4:	00000000 	nop
a0801ca8:	0c20070b 	jal	a0801c2c <other_exception_handler>
a0801cac:	00000000 	nop
a0801cb0:	03c0e821 	move	sp,s8
a0801cb4:	8fbf0014 	lw	ra,20(sp)
a0801cb8:	8fbe0010 	lw	s8,16(sp)
a0801cbc:	27bd0018 	addiu	sp,sp,24
a0801cc0:	03e00008 	jr	ra
a0801cc4:	00000000 	nop
	...

a0801cd0 <spin_lock_init>:
a0801cd0:	27bdfff8 	addiu	sp,sp,-8
a0801cd4:	afbe0004 	sw	s8,4(sp)
a0801cd8:	03a0f021 	move	s8,sp
a0801cdc:	afc40008 	sw	a0,8(s8)
a0801ce0:	8fc20008 	lw	v0,8(s8)
a0801ce4:	ac400000 	sw	zero,0(v0)
a0801ce8:	03c0e821 	move	sp,s8
a0801cec:	8fbe0004 	lw	s8,4(sp)
a0801cf0:	27bd0008 	addiu	sp,sp,8
a0801cf4:	03e00008 	jr	ra
a0801cf8:	00000000 	nop

a0801cfc <spin_lock_acquire>:
a0801cfc:	27bdfff8 	addiu	sp,sp,-8
a0801d00:	afbe0004 	sw	s8,4(sp)
a0801d04:	03a0f021 	move	s8,sp
a0801d08:	afc40008 	sw	a0,8(s8)
a0801d0c:	8fc20008 	lw	v0,8(s8)
a0801d10:	8c430000 	lw	v1,0(v0)
a0801d14:	24020001 	li	v0,1
a0801d18:	1062fffc 	beq	v1,v0,a0801d0c <spin_lock_acquire+0x10>
a0801d1c:	00000000 	nop
a0801d20:	8fc30008 	lw	v1,8(s8)
a0801d24:	24020001 	li	v0,1
a0801d28:	ac620000 	sw	v0,0(v1)
a0801d2c:	03c0e821 	move	sp,s8
a0801d30:	8fbe0004 	lw	s8,4(sp)
a0801d34:	27bd0008 	addiu	sp,sp,8
a0801d38:	03e00008 	jr	ra
a0801d3c:	00000000 	nop

a0801d40 <spin_lock_release>:
a0801d40:	27bdfff8 	addiu	sp,sp,-8
a0801d44:	afbe0004 	sw	s8,4(sp)
a0801d48:	03a0f021 	move	s8,sp
a0801d4c:	afc40008 	sw	a0,8(s8)
a0801d50:	8fc20008 	lw	v0,8(s8)
a0801d54:	ac400000 	sw	zero,0(v0)
a0801d58:	03c0e821 	move	sp,s8
a0801d5c:	8fbe0004 	lw	s8,4(sp)
a0801d60:	27bd0008 	addiu	sp,sp,8
a0801d64:	03e00008 	jr	ra
a0801d68:	00000000 	nop

a0801d6c <do_mutex_lock_init>:
a0801d6c:	27bdfff8 	addiu	sp,sp,-8
a0801d70:	afbe0004 	sw	s8,4(sp)
a0801d74:	03a0f021 	move	s8,sp
a0801d78:	afc40008 	sw	a0,8(s8)
a0801d7c:	8fc20008 	lw	v0,8(s8)
a0801d80:	ac400000 	sw	zero,0(v0)
a0801d84:	03c0e821 	move	sp,s8
a0801d88:	8fbe0004 	lw	s8,4(sp)
a0801d8c:	27bd0008 	addiu	sp,sp,8
a0801d90:	03e00008 	jr	ra
a0801d94:	00000000 	nop

a0801d98 <do_mutex_lock_acquire>:
a0801d98:	27bdffe8 	addiu	sp,sp,-24
a0801d9c:	afbf0014 	sw	ra,20(sp)
a0801da0:	afbe0010 	sw	s8,16(sp)
a0801da4:	03a0f021 	move	s8,sp
a0801da8:	afc40018 	sw	a0,24(s8)
a0801dac:	8fc20018 	lw	v0,24(s8)
a0801db0:	8c430000 	lw	v1,0(v0)
a0801db4:	24020001 	li	v0,1
a0801db8:	1462000a 	bne	v1,v0,a0801de4 <do_mutex_lock_acquire+0x4c>
a0801dbc:	00000000 	nop
a0801dc0:	3c02a080 	lui	v0,0xa080
a0801dc4:	2444461c 	addiu	a0,v0,17948
a0801dc8:	0c20086c 	jal	a08021b0 <do_block>
a0801dcc:	00000000 	nop
a0801dd0:	8fc30018 	lw	v1,24(s8)
a0801dd4:	24020001 	li	v0,1
a0801dd8:	ac620000 	sw	v0,0(v1)
a0801ddc:	0820077c 	j	a0801df0 <do_mutex_lock_acquire+0x58>
a0801de0:	00000000 	nop
a0801de4:	8fc30018 	lw	v1,24(s8)
a0801de8:	24020001 	li	v0,1
a0801dec:	ac620000 	sw	v0,0(v1)
a0801df0:	03c0e821 	move	sp,s8
a0801df4:	8fbf0014 	lw	ra,20(sp)
a0801df8:	8fbe0010 	lw	s8,16(sp)
a0801dfc:	27bd0018 	addiu	sp,sp,24
a0801e00:	03e00008 	jr	ra
a0801e04:	00000000 	nop

a0801e08 <do_mutex_lock_release>:
a0801e08:	27bdffe8 	addiu	sp,sp,-24
a0801e0c:	afbf0014 	sw	ra,20(sp)
a0801e10:	afbe0010 	sw	s8,16(sp)
a0801e14:	03a0f021 	move	s8,sp
a0801e18:	afc40018 	sw	a0,24(s8)
a0801e1c:	8fc20018 	lw	v0,24(s8)
a0801e20:	8c430000 	lw	v1,0(v0)
a0801e24:	24020001 	li	v0,1
a0801e28:	14620007 	bne	v1,v0,a0801e48 <do_mutex_lock_release+0x40>
a0801e2c:	00000000 	nop
a0801e30:	8fc20018 	lw	v0,24(s8)
a0801e34:	ac400000 	sw	zero,0(v0)
a0801e38:	3c02a080 	lui	v0,0xa080
a0801e3c:	2444461c 	addiu	a0,v0,17948
a0801e40:	0c200882 	jal	a0802208 <do_unblock_one>
a0801e44:	00000000 	nop
a0801e48:	03c0e821 	move	sp,s8
a0801e4c:	8fbf0014 	lw	ra,20(sp)
a0801e50:	8fbe0010 	lw	s8,16(sp)
a0801e54:	27bd0018 	addiu	sp,sp,24
a0801e58:	03e00008 	jr	ra
a0801e5c:	00000000 	nop

a0801e60 <check_sleeping>:
a0801e60:	27bdffe0 	addiu	sp,sp,-32
a0801e64:	afbf001c 	sw	ra,28(sp)
a0801e68:	afbe0018 	sw	s8,24(sp)
a0801e6c:	03a0f021 	move	s8,sp
a0801e70:	0c200986 	jal	a0802618 <get_timer>
a0801e74:	00000000 	nop
a0801e78:	afc20010 	sw	v0,16(s8)
a0801e7c:	24040001 	li	a0,1
a0801e80:	24050007 	li	a1,7
a0801e84:	0c200208 	jal	a0800820 <vt100_move_cursor>
a0801e88:	00000000 	nop
a0801e8c:	3c02a080 	lui	v0,0xa080
a0801e90:	8c426580 	lw	v0,25984(v0)
a0801e94:	00402821 	move	a1,v0
a0801e98:	24430001 	addiu	v1,v0,1
a0801e9c:	3c02a080 	lui	v0,0xa080
a0801ea0:	ac436580 	sw	v1,25984(v0)
a0801ea4:	3c02a080 	lui	v0,0xa080
a0801ea8:	24444080 	addiu	a0,v0,16512
a0801eac:	0c200d69 	jal	a08035a4 <printk>
a0801eb0:	00000000 	nop
a0801eb4:	3c02a080 	lui	v0,0xa080
a0801eb8:	8c42462c 	lw	v0,17964(v0)
a0801ebc:	afc20014 	sw	v0,20(s8)
a0801ec0:	082007cf 	j	a0801f3c <check_sleeping+0xdc>
a0801ec4:	00000000 	nop
a0801ec8:	8fc20014 	lw	v0,20(s8)
a0801ecc:	8c420164 	lw	v0,356(v0)
a0801ed0:	00401821 	move	v1,v0
a0801ed4:	8fc20010 	lw	v0,16(s8)
a0801ed8:	0043102b 	sltu	v0,v0,v1
a0801edc:	14400014 	bnez	v0,a0801f30 <check_sleeping+0xd0>
a0801ee0:	00000000 	nop
a0801ee4:	8fc20014 	lw	v0,20(s8)
a0801ee8:	8c420164 	lw	v0,356(v0)
a0801eec:	10400010 	beqz	v0,a0801f30 <check_sleeping+0xd0>
a0801ef0:	00000000 	nop
a0801ef4:	3c02a080 	lui	v0,0xa080
a0801ef8:	2444462c 	addiu	a0,v0,17964
a0801efc:	8fc50014 	lw	a1,20(s8)
a0801f00:	0c20092d 	jal	a08024b4 <queue_remove>
a0801f04:	00000000 	nop
a0801f08:	8fc20014 	lw	v0,20(s8)
a0801f0c:	8c420130 	lw	v0,304(v0)
a0801f10:	24430004 	addiu	v1,v0,4
a0801f14:	8fc20014 	lw	v0,20(s8)
a0801f18:	ac430130 	sw	v1,304(v0)
a0801f1c:	3c02a080 	lui	v0,0xa080
a0801f20:	24444624 	addiu	a0,v0,17956
a0801f24:	8fc50014 	lw	a1,20(s8)
a0801f28:	0c2008de 	jal	a0802378 <queue_push>
a0801f2c:	00000000 	nop
a0801f30:	8fc20014 	lw	v0,20(s8)
a0801f34:	8c420144 	lw	v0,324(v0)
a0801f38:	afc20014 	sw	v0,20(s8)
a0801f3c:	8fc20014 	lw	v0,20(s8)
a0801f40:	1440ffe1 	bnez	v0,a0801ec8 <check_sleeping+0x68>
a0801f44:	00000000 	nop
a0801f48:	03c0e821 	move	sp,s8
a0801f4c:	8fbf001c 	lw	ra,28(sp)
a0801f50:	8fbe0018 	lw	s8,24(sp)
a0801f54:	27bd0020 	addiu	sp,sp,32
a0801f58:	03e00008 	jr	ra
a0801f5c:	00000000 	nop

a0801f60 <scheduler>:
a0801f60:	27bdffe0 	addiu	sp,sp,-32
a0801f64:	afbf001c 	sw	ra,28(sp)
a0801f68:	afbe0018 	sw	s8,24(sp)
a0801f6c:	03a0f021 	move	s8,sp
a0801f70:	0c200798 	jal	a0801e60 <check_sleeping>
a0801f74:	00000000 	nop
a0801f78:	3c02a080 	lui	v0,0xa080
a0801f7c:	8c424618 	lw	v0,17944(v0)
a0801f80:	8c430150 	lw	v1,336(v0)
a0801f84:	24020001 	li	v0,1
a0801f88:	14620016 	bne	v1,v0,a0801fe4 <scheduler+0x84>
a0801f8c:	00000000 	nop
a0801f90:	3c02a080 	lui	v0,0xa080
a0801f94:	8c434618 	lw	v1,17944(v0)
a0801f98:	24020002 	li	v0,2
a0801f9c:	ac620150 	sw	v0,336(v1)
a0801fa0:	3c02a080 	lui	v0,0xa080
a0801fa4:	8c434618 	lw	v1,17944(v0)
a0801fa8:	3c02a080 	lui	v0,0xa080
a0801fac:	8c424610 	lw	v0,17936(v0)
a0801fb0:	ac620154 	sw	v0,340(v1)
a0801fb4:	3c02a080 	lui	v0,0xa080
a0801fb8:	8c434618 	lw	v1,17944(v0)
a0801fbc:	3c02a080 	lui	v0,0xa080
a0801fc0:	8c424614 	lw	v0,17940(v0)
a0801fc4:	ac620158 	sw	v0,344(v1)
a0801fc8:	3c02a080 	lui	v0,0xa080
a0801fcc:	8c434618 	lw	v1,17944(v0)
a0801fd0:	3c02a080 	lui	v0,0xa080
a0801fd4:	24444624 	addiu	a0,v0,17956
a0801fd8:	00602821 	move	a1,v1
a0801fdc:	0c2008de 	jal	a0802378 <queue_push>
a0801fe0:	00000000 	nop
a0801fe4:	afc00010 	sw	zero,16(s8)
a0801fe8:	3c02a080 	lui	v0,0xa080
a0801fec:	8c424624 	lw	v0,17956(v0)
a0801ff0:	afc20014 	sw	v0,20(s8)
a0801ff4:	0820080e 	j	a0802038 <scheduler+0xd8>
a0801ff8:	00000000 	nop
a0801ffc:	8fc20014 	lw	v0,20(s8)
a0802000:	8c43015c 	lw	v1,348(v0)
a0802004:	8fc20010 	lw	v0,16(s8)
a0802008:	0043102a 	slt	v0,v0,v1
a080200c:	10400007 	beqz	v0,a080202c <scheduler+0xcc>
a0802010:	00000000 	nop
a0802014:	8fc20014 	lw	v0,20(s8)
a0802018:	8c42015c 	lw	v0,348(v0)
a080201c:	afc20010 	sw	v0,16(s8)
a0802020:	3c03a080 	lui	v1,0xa080
a0802024:	8fc20014 	lw	v0,20(s8)
a0802028:	ac624618 	sw	v0,17944(v1)
a080202c:	8fc20014 	lw	v0,20(s8)
a0802030:	8c420144 	lw	v0,324(v0)
a0802034:	afc20014 	sw	v0,20(s8)
a0802038:	8fc20014 	lw	v0,20(s8)
a080203c:	1440ffef 	bnez	v0,a0801ffc <scheduler+0x9c>
a0802040:	00000000 	nop
a0802044:	3c02a080 	lui	v0,0xa080
a0802048:	8c434618 	lw	v1,17944(v0)
a080204c:	3c02a080 	lui	v0,0xa080
a0802050:	24444624 	addiu	a0,v0,17956
a0802054:	00602821 	move	a1,v1
a0802058:	0c20092d 	jal	a08024b4 <queue_remove>
a080205c:	00000000 	nop
a0802060:	3c02a080 	lui	v0,0xa080
a0802064:	8c434618 	lw	v1,17944(v0)
a0802068:	8c62015c 	lw	v0,348(v1)
a080206c:	2442ffff 	addiu	v0,v0,-1
a0802070:	ac62015c 	sw	v0,348(v1)
a0802074:	3c02a080 	lui	v0,0xa080
a0802078:	8c424618 	lw	v0,17944(v0)
a080207c:	8c42015c 	lw	v0,348(v0)
a0802080:	14400007 	bnez	v0,a08020a0 <scheduler+0x140>
a0802084:	00000000 	nop
a0802088:	3c02a080 	lui	v0,0xa080
a080208c:	8c434618 	lw	v1,17944(v0)
a0802090:	3c02a080 	lui	v0,0xa080
a0802094:	8c424618 	lw	v0,17944(v0)
a0802098:	8c420160 	lw	v0,352(v0)
a080209c:	ac62015c 	sw	v0,348(v1)
a08020a0:	3c02a080 	lui	v0,0xa080
a08020a4:	8c424618 	lw	v0,17944(v0)
a08020a8:	8c430148 	lw	v1,328(v0)
a08020ac:	3c02a080 	lui	v0,0xa080
a08020b0:	ac4342f0 	sw	v1,17136(v0)
a08020b4:	3c02a080 	lui	v0,0xa080
a08020b8:	8c434618 	lw	v1,17944(v0)
a08020bc:	24020001 	li	v0,1
a08020c0:	ac620150 	sw	v0,336(v1)
a08020c4:	3c02a080 	lui	v0,0xa080
a08020c8:	8c424618 	lw	v0,17944(v0)
a08020cc:	8c430154 	lw	v1,340(v0)
a08020d0:	3c02a080 	lui	v0,0xa080
a08020d4:	ac434610 	sw	v1,17936(v0)
a08020d8:	3c02a080 	lui	v0,0xa080
a08020dc:	8c424618 	lw	v0,17944(v0)
a08020e0:	8c430158 	lw	v1,344(v0)
a08020e4:	3c02a080 	lui	v0,0xa080
a08020e8:	ac434614 	sw	v1,17940(v0)
a08020ec:	03c0e821 	move	sp,s8
a08020f0:	8fbf001c 	lw	ra,28(sp)
a08020f4:	8fbe0018 	lw	s8,24(sp)
a08020f8:	27bd0020 	addiu	sp,sp,32
a08020fc:	03e00008 	jr	ra
a0802100:	00000000 	nop

a0802104 <do_sleep>:
a0802104:	27bdffe0 	addiu	sp,sp,-32
a0802108:	afbf001c 	sw	ra,28(sp)
a080210c:	afbe0018 	sw	s8,24(sp)
a0802110:	afb00014 	sw	s0,20(sp)
a0802114:	03a0f021 	move	s8,sp
a0802118:	afc40020 	sw	a0,32(s8)
a080211c:	3c02a080 	lui	v0,0xa080
a0802120:	8c504618 	lw	s0,17944(v0)
a0802124:	0c200986 	jal	a0802618 <get_timer>
a0802128:	00000000 	nop
a080212c:	00401821 	move	v1,v0
a0802130:	8fc20020 	lw	v0,32(s8)
a0802134:	00621021 	addu	v0,v1,v0
a0802138:	ae020164 	sw	v0,356(s0)
a080213c:	3c02a080 	lui	v0,0xa080
a0802140:	8c424618 	lw	v0,17944(v0)
a0802144:	ac400150 	sw	zero,336(v0)
a0802148:	3c02a080 	lui	v0,0xa080
a080214c:	8c434618 	lw	v1,17944(v0)
a0802150:	3c02a080 	lui	v0,0xa080
a0802154:	8c424610 	lw	v0,17936(v0)
a0802158:	ac620154 	sw	v0,340(v1)
a080215c:	3c02a080 	lui	v0,0xa080
a0802160:	8c434618 	lw	v1,17944(v0)
a0802164:	3c02a080 	lui	v0,0xa080
a0802168:	8c424614 	lw	v0,17940(v0)
a080216c:	ac620158 	sw	v0,344(v1)
a0802170:	3c02a080 	lui	v0,0xa080
a0802174:	8c434618 	lw	v1,17944(v0)
a0802178:	3c02a080 	lui	v0,0xa080
a080217c:	2444462c 	addiu	a0,v0,17964
a0802180:	00602821 	move	a1,v1
a0802184:	0c2008de 	jal	a0802378 <queue_push>
a0802188:	00000000 	nop
a080218c:	0c2000d9 	jal	a0800364 <do_scheduler>
a0802190:	00000000 	nop
a0802194:	03c0e821 	move	sp,s8
a0802198:	8fbf001c 	lw	ra,28(sp)
a080219c:	8fbe0018 	lw	s8,24(sp)
a08021a0:	8fb00014 	lw	s0,20(sp)
a08021a4:	27bd0020 	addiu	sp,sp,32
a08021a8:	03e00008 	jr	ra
a08021ac:	00000000 	nop

a08021b0 <do_block>:
a08021b0:	27bdffe8 	addiu	sp,sp,-24
a08021b4:	afbf0014 	sw	ra,20(sp)
a08021b8:	afbe0010 	sw	s8,16(sp)
a08021bc:	03a0f021 	move	s8,sp
a08021c0:	afc40018 	sw	a0,24(s8)
a08021c4:	3c02a080 	lui	v0,0xa080
a08021c8:	8c424618 	lw	v0,17944(v0)
a08021cc:	ac400150 	sw	zero,336(v0)
a08021d0:	3c02a080 	lui	v0,0xa080
a08021d4:	8c424618 	lw	v0,17944(v0)
a08021d8:	8fc40018 	lw	a0,24(s8)
a08021dc:	00402821 	move	a1,v0
a08021e0:	0c2008de 	jal	a0802378 <queue_push>
a08021e4:	00000000 	nop
a08021e8:	0c2000d9 	jal	a0800364 <do_scheduler>
a08021ec:	00000000 	nop
a08021f0:	03c0e821 	move	sp,s8
a08021f4:	8fbf0014 	lw	ra,20(sp)
a08021f8:	8fbe0010 	lw	s8,16(sp)
a08021fc:	27bd0018 	addiu	sp,sp,24
a0802200:	03e00008 	jr	ra
a0802204:	00000000 	nop

a0802208 <do_unblock_one>:
a0802208:	27bdffe0 	addiu	sp,sp,-32
a080220c:	afbf001c 	sw	ra,28(sp)
a0802210:	afbe0018 	sw	s8,24(sp)
a0802214:	03a0f021 	move	s8,sp
a0802218:	afc40020 	sw	a0,32(s8)
a080221c:	8fc40020 	lw	a0,32(s8)
a0802220:	0c2008cb 	jal	a080232c <queue_is_empty>
a0802224:	00000000 	nop
a0802228:	1440000d 	bnez	v0,a0802260 <do_unblock_one+0x58>
a080222c:	00000000 	nop
a0802230:	8fc40020 	lw	a0,32(s8)
a0802234:	0c200908 	jal	a0802420 <queue_dequeue>
a0802238:	00000000 	nop
a080223c:	afc20010 	sw	v0,16(s8)
a0802240:	8fc30010 	lw	v1,16(s8)
a0802244:	24020002 	li	v0,2
a0802248:	ac620150 	sw	v0,336(v1)
a080224c:	3c02a080 	lui	v0,0xa080
a0802250:	24444624 	addiu	a0,v0,17956
a0802254:	8fc50010 	lw	a1,16(s8)
a0802258:	0c2008de 	jal	a0802378 <queue_push>
a080225c:	00000000 	nop
a0802260:	03c0e821 	move	sp,s8
a0802264:	8fbf001c 	lw	ra,28(sp)
a0802268:	8fbe0018 	lw	s8,24(sp)
a080226c:	27bd0020 	addiu	sp,sp,32
a0802270:	03e00008 	jr	ra
a0802274:	00000000 	nop

a0802278 <do_unblock_all>:
a0802278:	27bdffe0 	addiu	sp,sp,-32
a080227c:	afbf001c 	sw	ra,28(sp)
a0802280:	afbe0018 	sw	s8,24(sp)
a0802284:	03a0f021 	move	s8,sp
a0802288:	afc40020 	sw	a0,32(s8)
a080228c:	082008b1 	j	a08022c4 <do_unblock_all+0x4c>
a0802290:	00000000 	nop
a0802294:	8fc40020 	lw	a0,32(s8)
a0802298:	0c200908 	jal	a0802420 <queue_dequeue>
a080229c:	00000000 	nop
a08022a0:	afc20010 	sw	v0,16(s8)
a08022a4:	8fc30010 	lw	v1,16(s8)
a08022a8:	24020002 	li	v0,2
a08022ac:	ac620150 	sw	v0,336(v1)
a08022b0:	3c02a080 	lui	v0,0xa080
a08022b4:	24444624 	addiu	a0,v0,17956
a08022b8:	8fc50010 	lw	a1,16(s8)
a08022bc:	0c2008de 	jal	a0802378 <queue_push>
a08022c0:	00000000 	nop
a08022c4:	8fc40020 	lw	a0,32(s8)
a08022c8:	0c2008cb 	jal	a080232c <queue_is_empty>
a08022cc:	00000000 	nop
a08022d0:	1040fff0 	beqz	v0,a0802294 <do_unblock_all+0x1c>
a08022d4:	00000000 	nop
a08022d8:	03c0e821 	move	sp,s8
a08022dc:	8fbf001c 	lw	ra,28(sp)
a08022e0:	8fbe0018 	lw	s8,24(sp)
a08022e4:	27bd0020 	addiu	sp,sp,32
a08022e8:	03e00008 	jr	ra
a08022ec:	00000000 	nop

a08022f0 <queue_init>:
a08022f0:	27bdfff8 	addiu	sp,sp,-8
a08022f4:	afbe0004 	sw	s8,4(sp)
a08022f8:	03a0f021 	move	s8,sp
a08022fc:	afc40008 	sw	a0,8(s8)
a0802300:	8fc20008 	lw	v0,8(s8)
a0802304:	ac400004 	sw	zero,4(v0)
a0802308:	8fc20008 	lw	v0,8(s8)
a080230c:	8c430004 	lw	v1,4(v0)
a0802310:	8fc20008 	lw	v0,8(s8)
a0802314:	ac430000 	sw	v1,0(v0)
a0802318:	03c0e821 	move	sp,s8
a080231c:	8fbe0004 	lw	s8,4(sp)
a0802320:	27bd0008 	addiu	sp,sp,8
a0802324:	03e00008 	jr	ra
a0802328:	00000000 	nop

a080232c <queue_is_empty>:
a080232c:	27bdfff0 	addiu	sp,sp,-16
a0802330:	afbe000c 	sw	s8,12(sp)
a0802334:	03a0f021 	move	s8,sp
a0802338:	afc40010 	sw	a0,16(s8)
a080233c:	8fc20010 	lw	v0,16(s8)
a0802340:	8c420000 	lw	v0,0(v0)
a0802344:	14400005 	bnez	v0,a080235c <queue_is_empty+0x30>
a0802348:	00000000 	nop
a080234c:	24020001 	li	v0,1
a0802350:	afc20000 	sw	v0,0(s8)
a0802354:	082008d8 	j	a0802360 <queue_is_empty+0x34>
a0802358:	00000000 	nop
a080235c:	afc00000 	sw	zero,0(s8)
a0802360:	8fc20000 	lw	v0,0(s8)
a0802364:	03c0e821 	move	sp,s8
a0802368:	8fbe000c 	lw	s8,12(sp)
a080236c:	27bd0010 	addiu	sp,sp,16
a0802370:	03e00008 	jr	ra
a0802374:	00000000 	nop

a0802378 <queue_push>:
a0802378:	27bdfff0 	addiu	sp,sp,-16
a080237c:	afbe000c 	sw	s8,12(sp)
a0802380:	03a0f021 	move	s8,sp
a0802384:	afc40010 	sw	a0,16(s8)
a0802388:	afc50014 	sw	a1,20(s8)
a080238c:	8fc20014 	lw	v0,20(s8)
a0802390:	afc20000 	sw	v0,0(s8)
a0802394:	8fc20010 	lw	v0,16(s8)
a0802398:	8c420000 	lw	v0,0(v0)
a080239c:	1440000d 	bnez	v0,a08023d4 <queue_push+0x5c>
a08023a0:	00000000 	nop
a08023a4:	8fc30010 	lw	v1,16(s8)
a08023a8:	8fc20014 	lw	v0,20(s8)
a08023ac:	ac620000 	sw	v0,0(v1)
a08023b0:	8fc30010 	lw	v1,16(s8)
a08023b4:	8fc20014 	lw	v0,20(s8)
a08023b8:	ac620004 	sw	v0,4(v1)
a08023bc:	8fc20000 	lw	v0,0(s8)
a08023c0:	ac400144 	sw	zero,324(v0)
a08023c4:	8fc20000 	lw	v0,0(s8)
a08023c8:	ac400140 	sw	zero,320(v0)
a08023cc:	08200903 	j	a080240c <queue_push+0x94>
a08023d0:	00000000 	nop
a08023d4:	8fc20010 	lw	v0,16(s8)
a08023d8:	8c420004 	lw	v0,4(v0)
a08023dc:	00401821 	move	v1,v0
a08023e0:	8fc20014 	lw	v0,20(s8)
a08023e4:	ac620144 	sw	v0,324(v1)
a08023e8:	8fc20000 	lw	v0,0(s8)
a08023ec:	ac400144 	sw	zero,324(v0)
a08023f0:	8fc20010 	lw	v0,16(s8)
a08023f4:	8c430004 	lw	v1,4(v0)
a08023f8:	8fc20000 	lw	v0,0(s8)
a08023fc:	ac430140 	sw	v1,320(v0)
a0802400:	8fc30010 	lw	v1,16(s8)
a0802404:	8fc20014 	lw	v0,20(s8)
a0802408:	ac620004 	sw	v0,4(v1)
a080240c:	03c0e821 	move	sp,s8
a0802410:	8fbe000c 	lw	s8,12(sp)
a0802414:	27bd0010 	addiu	sp,sp,16
a0802418:	03e00008 	jr	ra
a080241c:	00000000 	nop

a0802420 <queue_dequeue>:
a0802420:	27bdfff0 	addiu	sp,sp,-16
a0802424:	afbe000c 	sw	s8,12(sp)
a0802428:	03a0f021 	move	s8,sp
a080242c:	afc40010 	sw	a0,16(s8)
a0802430:	8fc20010 	lw	v0,16(s8)
a0802434:	8c420000 	lw	v0,0(v0)
a0802438:	afc20000 	sw	v0,0(s8)
a080243c:	8fc20000 	lw	v0,0(s8)
a0802440:	8c420144 	lw	v0,324(v0)
a0802444:	14400009 	bnez	v0,a080246c <queue_dequeue+0x4c>
a0802448:	00000000 	nop
a080244c:	8fc20010 	lw	v0,16(s8)
a0802450:	ac400004 	sw	zero,4(v0)
a0802454:	8fc20010 	lw	v0,16(s8)
a0802458:	8c430004 	lw	v1,4(v0)
a080245c:	8fc20010 	lw	v0,16(s8)
a0802460:	ac430000 	sw	v1,0(v0)
a0802464:	08200923 	j	a080248c <queue_dequeue+0x6c>
a0802468:	00000000 	nop
a080246c:	8fc20010 	lw	v0,16(s8)
a0802470:	8c420000 	lw	v0,0(v0)
a0802474:	8c430144 	lw	v1,324(v0)
a0802478:	8fc20010 	lw	v0,16(s8)
a080247c:	ac430000 	sw	v1,0(v0)
a0802480:	8fc20010 	lw	v0,16(s8)
a0802484:	8c420000 	lw	v0,0(v0)
a0802488:	ac400140 	sw	zero,320(v0)
a080248c:	8fc20000 	lw	v0,0(s8)
a0802490:	ac400140 	sw	zero,320(v0)
a0802494:	8fc20000 	lw	v0,0(s8)
a0802498:	ac400144 	sw	zero,324(v0)
a080249c:	8fc20000 	lw	v0,0(s8)
a08024a0:	03c0e821 	move	sp,s8
a08024a4:	8fbe000c 	lw	s8,12(sp)
a08024a8:	27bd0010 	addiu	sp,sp,16
a08024ac:	03e00008 	jr	ra
a08024b0:	00000000 	nop

a08024b4 <queue_remove>:
a08024b4:	27bdfff0 	addiu	sp,sp,-16
a08024b8:	afbe000c 	sw	s8,12(sp)
a08024bc:	03a0f021 	move	s8,sp
a08024c0:	afc40010 	sw	a0,16(s8)
a08024c4:	afc50014 	sw	a1,20(s8)
a08024c8:	8fc20014 	lw	v0,20(s8)
a08024cc:	afc20004 	sw	v0,4(s8)
a08024d0:	8fc20004 	lw	v0,4(s8)
a08024d4:	8c420144 	lw	v0,324(v0)
a08024d8:	afc20000 	sw	v0,0(s8)
a08024dc:	8fc20010 	lw	v0,16(s8)
a08024e0:	8c430000 	lw	v1,0(v0)
a08024e4:	8fc20014 	lw	v0,20(s8)
a08024e8:	1462000c 	bne	v1,v0,a080251c <queue_remove+0x68>
a08024ec:	00000000 	nop
a08024f0:	8fc20010 	lw	v0,16(s8)
a08024f4:	8c430004 	lw	v1,4(v0)
a08024f8:	8fc20014 	lw	v0,20(s8)
a08024fc:	14620007 	bne	v1,v0,a080251c <queue_remove+0x68>
a0802500:	00000000 	nop
a0802504:	8fc20010 	lw	v0,16(s8)
a0802508:	ac400000 	sw	zero,0(v0)
a080250c:	8fc20010 	lw	v0,16(s8)
a0802510:	ac400004 	sw	zero,4(v0)
a0802514:	0820096f 	j	a08025bc <queue_remove+0x108>
a0802518:	00000000 	nop
a080251c:	8fc20010 	lw	v0,16(s8)
a0802520:	8c430000 	lw	v1,0(v0)
a0802524:	8fc20014 	lw	v0,20(s8)
a0802528:	1462000a 	bne	v1,v0,a0802554 <queue_remove+0xa0>
a080252c:	00000000 	nop
a0802530:	8fc20004 	lw	v0,4(s8)
a0802534:	8c430144 	lw	v1,324(v0)
a0802538:	8fc20010 	lw	v0,16(s8)
a080253c:	ac430000 	sw	v1,0(v0)
a0802540:	8fc20010 	lw	v0,16(s8)
a0802544:	8c420000 	lw	v0,0(v0)
a0802548:	ac400140 	sw	zero,320(v0)
a080254c:	0820096f 	j	a08025bc <queue_remove+0x108>
a0802550:	00000000 	nop
a0802554:	8fc20010 	lw	v0,16(s8)
a0802558:	8c430004 	lw	v1,4(v0)
a080255c:	8fc20014 	lw	v0,20(s8)
a0802560:	1462000a 	bne	v1,v0,a080258c <queue_remove+0xd8>
a0802564:	00000000 	nop
a0802568:	8fc20004 	lw	v0,4(s8)
a080256c:	8c430140 	lw	v1,320(v0)
a0802570:	8fc20010 	lw	v0,16(s8)
a0802574:	ac430004 	sw	v1,4(v0)
a0802578:	8fc20010 	lw	v0,16(s8)
a080257c:	8c420004 	lw	v0,4(v0)
a0802580:	ac400144 	sw	zero,324(v0)
a0802584:	0820096f 	j	a08025bc <queue_remove+0x108>
a0802588:	00000000 	nop
a080258c:	8fc20004 	lw	v0,4(s8)
a0802590:	8c420140 	lw	v0,320(v0)
a0802594:	00401821 	move	v1,v0
a0802598:	8fc20004 	lw	v0,4(s8)
a080259c:	8c420144 	lw	v0,324(v0)
a08025a0:	ac620144 	sw	v0,324(v1)
a08025a4:	8fc20004 	lw	v0,4(s8)
a08025a8:	8c420144 	lw	v0,324(v0)
a08025ac:	00401821 	move	v1,v0
a08025b0:	8fc20004 	lw	v0,4(s8)
a08025b4:	8c420140 	lw	v0,320(v0)
a08025b8:	ac620140 	sw	v0,320(v1)
a08025bc:	8fc20004 	lw	v0,4(s8)
a08025c0:	ac400140 	sw	zero,320(v0)
a08025c4:	8fc20004 	lw	v0,4(s8)
a08025c8:	ac400144 	sw	zero,324(v0)
a08025cc:	8fc20000 	lw	v0,0(s8)
a08025d0:	03c0e821 	move	sp,s8
a08025d4:	8fbe000c 	lw	s8,12(sp)
a08025d8:	27bd0010 	addiu	sp,sp,16
a08025dc:	03e00008 	jr	ra
a08025e0:	00000000 	nop
	...

a08025f0 <get_ticks>:
a08025f0:	27bdfff8 	addiu	sp,sp,-8
a08025f4:	afbe0004 	sw	s8,4(sp)
a08025f8:	03a0f021 	move	s8,sp
a08025fc:	3c02a080 	lui	v0,0xa080
a0802600:	8c426590 	lw	v0,26000(v0)
a0802604:	03c0e821 	move	sp,s8
a0802608:	8fbe0004 	lw	s8,4(sp)
a080260c:	27bd0008 	addiu	sp,sp,8
a0802610:	03e00008 	jr	ra
a0802614:	00000000 	nop

a0802618 <get_timer>:
a0802618:	27bdfff8 	addiu	sp,sp,-8
a080261c:	afbe0004 	sw	s8,4(sp)
a0802620:	03a0f021 	move	s8,sp
a0802624:	3c02a080 	lui	v0,0xa080
a0802628:	8c436590 	lw	v1,26000(v0)
a080262c:	3c026b5f 	lui	v0,0x6b5f
a0802630:	3442ca6b 	ori	v0,v0,0xca6b
a0802634:	00620019 	multu	v1,v0
a0802638:	00001010 	mfhi	v0
a080263c:	00021582 	srl	v0,v0,0x16
a0802640:	03c0e821 	move	sp,s8
a0802644:	8fbe0004 	lw	s8,4(sp)
a0802648:	27bd0008 	addiu	sp,sp,8
a080264c:	03e00008 	jr	ra
a0802650:	00000000 	nop

a0802654 <latency>:
a0802654:	27bdffe0 	addiu	sp,sp,-32
a0802658:	afbf001c 	sw	ra,28(sp)
a080265c:	afbe0018 	sw	s8,24(sp)
a0802660:	03a0f021 	move	s8,sp
a0802664:	afc40020 	sw	a0,32(s8)
a0802668:	0c200986 	jal	a0802618 <get_timer>
a080266c:	00000000 	nop
a0802670:	afc20010 	sw	v0,16(s8)
a0802674:	0c200986 	jal	a0802618 <get_timer>
a0802678:	00000000 	nop
a080267c:	00401821 	move	v1,v0
a0802680:	8fc20010 	lw	v0,16(s8)
a0802684:	00621823 	subu	v1,v1,v0
a0802688:	8fc20020 	lw	v0,32(s8)
a080268c:	0062102b 	sltu	v0,v1,v0
a0802690:	1440fff8 	bnez	v0,a0802674 <latency+0x20>
a0802694:	00000000 	nop
a0802698:	03c0e821 	move	sp,s8
a080269c:	8fbf001c 	lw	ra,28(sp)
a08026a0:	8fbe0018 	lw	s8,24(sp)
a08026a4:	27bd0020 	addiu	sp,sp,32
a08026a8:	03e00008 	jr	ra
a08026ac:	00000000 	nop

a08026b0 <system_call_helper>:
a08026b0:	27bdffe8 	addiu	sp,sp,-24
a08026b4:	afbf0014 	sw	ra,20(sp)
a08026b8:	afbe0010 	sw	s8,16(sp)
a08026bc:	03a0f021 	move	s8,sp
a08026c0:	afc40018 	sw	a0,24(s8)
a08026c4:	afc5001c 	sw	a1,28(s8)
a08026c8:	afc60020 	sw	a2,32(s8)
a08026cc:	afc70024 	sw	a3,36(s8)
a08026d0:	8fc20018 	lw	v0,24(s8)
a08026d4:	2c420021 	sltiu	v0,v0,33
a08026d8:	10400043 	beqz	v0,a08027e8 <system_call_helper+0x138>
a08026dc:	00000000 	nop
a08026e0:	8fc20018 	lw	v0,24(s8)
a08026e4:	00021880 	sll	v1,v0,0x2
a08026e8:	3c02a080 	lui	v0,0xa080
a08026ec:	24424090 	addiu	v0,v0,16528
a08026f0:	00621021 	addu	v0,v1,v0
a08026f4:	8c420000 	lw	v0,0(v0)
a08026f8:	00400008 	jr	v0
a08026fc:	00000000 	nop
a0802700:	8fc2001c 	lw	v0,28(s8)
a0802704:	00402021 	move	a0,v0
a0802708:	0c200841 	jal	a0802104 <do_sleep>
a080270c:	00000000 	nop
a0802710:	082009fa 	j	a08027e8 <system_call_helper+0x138>
a0802714:	00000000 	nop
a0802718:	8fc2001c 	lw	v0,28(s8)
a080271c:	00402021 	move	a0,v0
a0802720:	0c20086c 	jal	a08021b0 <do_block>
a0802724:	00000000 	nop
a0802728:	082009fa 	j	a08027e8 <system_call_helper+0x138>
a080272c:	00000000 	nop
a0802730:	8fc2001c 	lw	v0,28(s8)
a0802734:	00402021 	move	a0,v0
a0802738:	0c200882 	jal	a0802208 <do_unblock_one>
a080273c:	00000000 	nop
a0802740:	082009fa 	j	a08027e8 <system_call_helper+0x138>
a0802744:	00000000 	nop
a0802748:	8fc2001c 	lw	v0,28(s8)
a080274c:	00402021 	move	a0,v0
a0802750:	0c20089e 	jal	a0802278 <do_unblock_all>
a0802754:	00000000 	nop
a0802758:	082009fa 	j	a08027e8 <system_call_helper+0x138>
a080275c:	00000000 	nop
a0802760:	8fc2001c 	lw	v0,28(s8)
a0802764:	00402021 	move	a0,v0
a0802768:	0c2002b4 	jal	a0800ad0 <screen_write>
a080276c:	00000000 	nop
a0802770:	0c2002d6 	jal	a0800b58 <screen_reflush>
a0802774:	00000000 	nop
a0802778:	082009fa 	j	a08027e8 <system_call_helper+0x138>
a080277c:	00000000 	nop
a0802780:	8fc4001c 	lw	a0,28(s8)
a0802784:	8fc50020 	lw	a1,32(s8)
a0802788:	0c2002a4 	jal	a0800a90 <screen_move_cursor>
a080278c:	00000000 	nop
a0802790:	082009fa 	j	a08027e8 <system_call_helper+0x138>
a0802794:	00000000 	nop
a0802798:	0c2002d6 	jal	a0800b58 <screen_reflush>
a080279c:	00000000 	nop
a08027a0:	082009fa 	j	a08027e8 <system_call_helper+0x138>
a08027a4:	00000000 	nop
a08027a8:	8fc2001c 	lw	v0,28(s8)
a08027ac:	00402021 	move	a0,v0
a08027b0:	0c20075b 	jal	a0801d6c <do_mutex_lock_init>
a08027b4:	00000000 	nop
a08027b8:	082009fa 	j	a08027e8 <system_call_helper+0x138>
a08027bc:	00000000 	nop
a08027c0:	8fc2001c 	lw	v0,28(s8)
a08027c4:	00402021 	move	a0,v0
a08027c8:	0c200766 	jal	a0801d98 <do_mutex_lock_acquire>
a08027cc:	00000000 	nop
a08027d0:	082009fa 	j	a08027e8 <system_call_helper+0x138>
a08027d4:	00000000 	nop
a08027d8:	8fc2001c 	lw	v0,28(s8)
a08027dc:	00402021 	move	a0,v0
a08027e0:	0c200782 	jal	a0801e08 <do_mutex_lock_release>
a08027e4:	00000000 	nop
a08027e8:	03c0e821 	move	sp,s8
a08027ec:	8fbf0014 	lw	ra,20(sp)
a08027f0:	8fbe0010 	lw	s8,16(sp)
a08027f4:	27bd0018 	addiu	sp,sp,24
a08027f8:	03e00008 	jr	ra
a08027fc:	00000000 	nop

a0802800 <sys_sleep>:
a0802800:	27bdffe8 	addiu	sp,sp,-24
a0802804:	afbf0014 	sw	ra,20(sp)
a0802808:	afbe0010 	sw	s8,16(sp)
a080280c:	03a0f021 	move	s8,sp
a0802810:	afc40018 	sw	a0,24(s8)
a0802814:	8fc20018 	lw	v0,24(s8)
a0802818:	24040002 	li	a0,2
a080281c:	00402821 	move	a1,v0
a0802820:	00003021 	move	a2,zero
a0802824:	00003821 	move	a3,zero
a0802828:	0c2001d8 	jal	a0800760 <invoke_syscall>
a080282c:	00000000 	nop
a0802830:	03c0e821 	move	sp,s8
a0802834:	8fbf0014 	lw	ra,20(sp)
a0802838:	8fbe0010 	lw	s8,16(sp)
a080283c:	27bd0018 	addiu	sp,sp,24
a0802840:	03e00008 	jr	ra
a0802844:	00000000 	nop

a0802848 <sys_block>:
a0802848:	27bdffe8 	addiu	sp,sp,-24
a080284c:	afbf0014 	sw	ra,20(sp)
a0802850:	afbe0010 	sw	s8,16(sp)
a0802854:	03a0f021 	move	s8,sp
a0802858:	afc40018 	sw	a0,24(s8)
a080285c:	8fc20018 	lw	v0,24(s8)
a0802860:	2404000a 	li	a0,10
a0802864:	00402821 	move	a1,v0
a0802868:	00003021 	move	a2,zero
a080286c:	00003821 	move	a3,zero
a0802870:	0c2001d8 	jal	a0800760 <invoke_syscall>
a0802874:	00000000 	nop
a0802878:	03c0e821 	move	sp,s8
a080287c:	8fbf0014 	lw	ra,20(sp)
a0802880:	8fbe0010 	lw	s8,16(sp)
a0802884:	27bd0018 	addiu	sp,sp,24
a0802888:	03e00008 	jr	ra
a080288c:	00000000 	nop

a0802890 <sys_unblock_one>:
a0802890:	27bdffe8 	addiu	sp,sp,-24
a0802894:	afbf0014 	sw	ra,20(sp)
a0802898:	afbe0010 	sw	s8,16(sp)
a080289c:	03a0f021 	move	s8,sp
a08028a0:	afc40018 	sw	a0,24(s8)
a08028a4:	8fc20018 	lw	v0,24(s8)
a08028a8:	2404000b 	li	a0,11
a08028ac:	00402821 	move	a1,v0
a08028b0:	00003021 	move	a2,zero
a08028b4:	00003821 	move	a3,zero
a08028b8:	0c2001d8 	jal	a0800760 <invoke_syscall>
a08028bc:	00000000 	nop
a08028c0:	03c0e821 	move	sp,s8
a08028c4:	8fbf0014 	lw	ra,20(sp)
a08028c8:	8fbe0010 	lw	s8,16(sp)
a08028cc:	27bd0018 	addiu	sp,sp,24
a08028d0:	03e00008 	jr	ra
a08028d4:	00000000 	nop

a08028d8 <sys_unblock_all>:
a08028d8:	27bdffe8 	addiu	sp,sp,-24
a08028dc:	afbf0014 	sw	ra,20(sp)
a08028e0:	afbe0010 	sw	s8,16(sp)
a08028e4:	03a0f021 	move	s8,sp
a08028e8:	afc40018 	sw	a0,24(s8)
a08028ec:	8fc20018 	lw	v0,24(s8)
a08028f0:	2404000c 	li	a0,12
a08028f4:	00402821 	move	a1,v0
a08028f8:	00003021 	move	a2,zero
a08028fc:	00003821 	move	a3,zero
a0802900:	0c2001d8 	jal	a0800760 <invoke_syscall>
a0802904:	00000000 	nop
a0802908:	03c0e821 	move	sp,s8
a080290c:	8fbf0014 	lw	ra,20(sp)
a0802910:	8fbe0010 	lw	s8,16(sp)
a0802914:	27bd0018 	addiu	sp,sp,24
a0802918:	03e00008 	jr	ra
a080291c:	00000000 	nop

a0802920 <sys_write>:
a0802920:	27bdffe8 	addiu	sp,sp,-24
a0802924:	afbf0014 	sw	ra,20(sp)
a0802928:	afbe0010 	sw	s8,16(sp)
a080292c:	03a0f021 	move	s8,sp
a0802930:	afc40018 	sw	a0,24(s8)
a0802934:	8fc20018 	lw	v0,24(s8)
a0802938:	24040014 	li	a0,20
a080293c:	00402821 	move	a1,v0
a0802940:	00003021 	move	a2,zero
a0802944:	00003821 	move	a3,zero
a0802948:	0c2001d8 	jal	a0800760 <invoke_syscall>
a080294c:	00000000 	nop
a0802950:	03c0e821 	move	sp,s8
a0802954:	8fbf0014 	lw	ra,20(sp)
a0802958:	8fbe0010 	lw	s8,16(sp)
a080295c:	27bd0018 	addiu	sp,sp,24
a0802960:	03e00008 	jr	ra
a0802964:	00000000 	nop

a0802968 <sys_reflush>:
a0802968:	27bdffe8 	addiu	sp,sp,-24
a080296c:	afbf0014 	sw	ra,20(sp)
a0802970:	afbe0010 	sw	s8,16(sp)
a0802974:	03a0f021 	move	s8,sp
a0802978:	24040017 	li	a0,23
a080297c:	00002821 	move	a1,zero
a0802980:	00003021 	move	a2,zero
a0802984:	00003821 	move	a3,zero
a0802988:	0c2001d8 	jal	a0800760 <invoke_syscall>
a080298c:	00000000 	nop
a0802990:	03c0e821 	move	sp,s8
a0802994:	8fbf0014 	lw	ra,20(sp)
a0802998:	8fbe0010 	lw	s8,16(sp)
a080299c:	27bd0018 	addiu	sp,sp,24
a08029a0:	03e00008 	jr	ra
a08029a4:	00000000 	nop

a08029a8 <sys_move_cursor>:
a08029a8:	27bdffe8 	addiu	sp,sp,-24
a08029ac:	afbf0014 	sw	ra,20(sp)
a08029b0:	afbe0010 	sw	s8,16(sp)
a08029b4:	03a0f021 	move	s8,sp
a08029b8:	afc40018 	sw	a0,24(s8)
a08029bc:	afc5001c 	sw	a1,28(s8)
a08029c0:	24040016 	li	a0,22
a08029c4:	8fc50018 	lw	a1,24(s8)
a08029c8:	8fc6001c 	lw	a2,28(s8)
a08029cc:	00003821 	move	a3,zero
a08029d0:	0c2001d8 	jal	a0800760 <invoke_syscall>
a08029d4:	00000000 	nop
a08029d8:	03c0e821 	move	sp,s8
a08029dc:	8fbf0014 	lw	ra,20(sp)
a08029e0:	8fbe0010 	lw	s8,16(sp)
a08029e4:	27bd0018 	addiu	sp,sp,24
a08029e8:	03e00008 	jr	ra
a08029ec:	00000000 	nop

a08029f0 <mutex_lock_init>:
a08029f0:	27bdffe8 	addiu	sp,sp,-24
a08029f4:	afbf0014 	sw	ra,20(sp)
a08029f8:	afbe0010 	sw	s8,16(sp)
a08029fc:	03a0f021 	move	s8,sp
a0802a00:	afc40018 	sw	a0,24(s8)
a0802a04:	8fc20018 	lw	v0,24(s8)
a0802a08:	2404001e 	li	a0,30
a0802a0c:	00402821 	move	a1,v0
a0802a10:	00003021 	move	a2,zero
a0802a14:	00003821 	move	a3,zero
a0802a18:	0c2001d8 	jal	a0800760 <invoke_syscall>
a0802a1c:	00000000 	nop
a0802a20:	03c0e821 	move	sp,s8
a0802a24:	8fbf0014 	lw	ra,20(sp)
a0802a28:	8fbe0010 	lw	s8,16(sp)
a0802a2c:	27bd0018 	addiu	sp,sp,24
a0802a30:	03e00008 	jr	ra
a0802a34:	00000000 	nop

a0802a38 <mutex_lock_acquire>:
a0802a38:	27bdffe8 	addiu	sp,sp,-24
a0802a3c:	afbf0014 	sw	ra,20(sp)
a0802a40:	afbe0010 	sw	s8,16(sp)
a0802a44:	03a0f021 	move	s8,sp
a0802a48:	afc40018 	sw	a0,24(s8)
a0802a4c:	8fc20018 	lw	v0,24(s8)
a0802a50:	2404001f 	li	a0,31
a0802a54:	00402821 	move	a1,v0
a0802a58:	00003021 	move	a2,zero
a0802a5c:	00003821 	move	a3,zero
a0802a60:	0c2001d8 	jal	a0800760 <invoke_syscall>
a0802a64:	00000000 	nop
a0802a68:	03c0e821 	move	sp,s8
a0802a6c:	8fbf0014 	lw	ra,20(sp)
a0802a70:	8fbe0010 	lw	s8,16(sp)
a0802a74:	27bd0018 	addiu	sp,sp,24
a0802a78:	03e00008 	jr	ra
a0802a7c:	00000000 	nop

a0802a80 <mutex_lock_release>:
a0802a80:	27bdffe8 	addiu	sp,sp,-24
a0802a84:	afbf0014 	sw	ra,20(sp)
a0802a88:	afbe0010 	sw	s8,16(sp)
a0802a8c:	03a0f021 	move	s8,sp
a0802a90:	afc40018 	sw	a0,24(s8)
a0802a94:	8fc20018 	lw	v0,24(s8)
a0802a98:	24040020 	li	a0,32
a0802a9c:	00402821 	move	a1,v0
a0802aa0:	00003021 	move	a2,zero
a0802aa4:	00003821 	move	a3,zero
a0802aa8:	0c2001d8 	jal	a0800760 <invoke_syscall>
a0802aac:	00000000 	nop
a0802ab0:	03c0e821 	move	sp,s8
a0802ab4:	8fbf0014 	lw	ra,20(sp)
a0802ab8:	8fbe0010 	lw	s8,16(sp)
a0802abc:	27bd0018 	addiu	sp,sp,24
a0802ac0:	03e00008 	jr	ra
a0802ac4:	00000000 	nop
	...

a0802ad0 <strlen>:
a0802ad0:	27bdfff0 	addiu	sp,sp,-16
a0802ad4:	afbe000c 	sw	s8,12(sp)
a0802ad8:	03a0f021 	move	s8,sp
a0802adc:	afc40010 	sw	a0,16(s8)
a0802ae0:	afc00000 	sw	zero,0(s8)
a0802ae4:	08200abe 	j	a0802af8 <strlen+0x28>
a0802ae8:	00000000 	nop
a0802aec:	8fc20000 	lw	v0,0(s8)
a0802af0:	24420001 	addiu	v0,v0,1
a0802af4:	afc20000 	sw	v0,0(s8)
a0802af8:	8fc30000 	lw	v1,0(s8)
a0802afc:	8fc20010 	lw	v0,16(s8)
a0802b00:	00431021 	addu	v0,v0,v1
a0802b04:	80420000 	lb	v0,0(v0)
a0802b08:	1440fff8 	bnez	v0,a0802aec <strlen+0x1c>
a0802b0c:	00000000 	nop
a0802b10:	8fc20000 	lw	v0,0(s8)
a0802b14:	03c0e821 	move	sp,s8
a0802b18:	8fbe000c 	lw	s8,12(sp)
a0802b1c:	27bd0010 	addiu	sp,sp,16
a0802b20:	03e00008 	jr	ra
a0802b24:	00000000 	nop

a0802b28 <memcpy>:
a0802b28:	27bdfff8 	addiu	sp,sp,-8
a0802b2c:	afbe0004 	sw	s8,4(sp)
a0802b30:	03a0f021 	move	s8,sp
a0802b34:	afc40008 	sw	a0,8(s8)
a0802b38:	afc5000c 	sw	a1,12(s8)
a0802b3c:	afc60010 	sw	a2,16(s8)
a0802b40:	08200adf 	j	a0802b7c <memcpy+0x54>
a0802b44:	00000000 	nop
a0802b48:	8fc2000c 	lw	v0,12(s8)
a0802b4c:	8c430000 	lw	v1,0(v0)
a0802b50:	8fc20008 	lw	v0,8(s8)
a0802b54:	ac430000 	sw	v1,0(v0)
a0802b58:	8fc20008 	lw	v0,8(s8)
a0802b5c:	24420004 	addiu	v0,v0,4
a0802b60:	afc20008 	sw	v0,8(s8)
a0802b64:	8fc2000c 	lw	v0,12(s8)
a0802b68:	24420004 	addiu	v0,v0,4
a0802b6c:	afc2000c 	sw	v0,12(s8)
a0802b70:	8fc20010 	lw	v0,16(s8)
a0802b74:	2442ffff 	addiu	v0,v0,-1
a0802b78:	afc20010 	sw	v0,16(s8)
a0802b7c:	8fc20010 	lw	v0,16(s8)
a0802b80:	1440fff1 	bnez	v0,a0802b48 <memcpy+0x20>
a0802b84:	00000000 	nop
a0802b88:	03c0e821 	move	sp,s8
a0802b8c:	8fbe0004 	lw	s8,4(sp)
a0802b90:	27bd0008 	addiu	sp,sp,8
a0802b94:	03e00008 	jr	ra
a0802b98:	00000000 	nop

a0802b9c <memset>:
a0802b9c:	27bdfff0 	addiu	sp,sp,-16
a0802ba0:	afbe000c 	sw	s8,12(sp)
a0802ba4:	03a0f021 	move	s8,sp
a0802ba8:	afc40010 	sw	a0,16(s8)
a0802bac:	afc50014 	sw	a1,20(s8)
a0802bb0:	afc60018 	sw	a2,24(s8)
a0802bb4:	8fc20010 	lw	v0,16(s8)
a0802bb8:	afc20000 	sw	v0,0(s8)
a0802bbc:	08200afa 	j	a0802be8 <memset+0x4c>
a0802bc0:	00000000 	nop
a0802bc4:	8fc30000 	lw	v1,0(s8)
a0802bc8:	8fc20014 	lw	v0,20(s8)
a0802bcc:	ac620000 	sw	v0,0(v1)
a0802bd0:	8fc20000 	lw	v0,0(s8)
a0802bd4:	24420004 	addiu	v0,v0,4
a0802bd8:	afc20000 	sw	v0,0(s8)
a0802bdc:	8fc20018 	lw	v0,24(s8)
a0802be0:	2442ffff 	addiu	v0,v0,-1
a0802be4:	afc20018 	sw	v0,24(s8)
a0802be8:	8fc20018 	lw	v0,24(s8)
a0802bec:	1440fff5 	bnez	v0,a0802bc4 <memset+0x28>
a0802bf0:	00000000 	nop
a0802bf4:	03c0e821 	move	sp,s8
a0802bf8:	8fbe000c 	lw	s8,12(sp)
a0802bfc:	27bd0010 	addiu	sp,sp,16
a0802c00:	03e00008 	jr	ra
a0802c04:	00000000 	nop

a0802c08 <bzero>:
a0802c08:	27bdffe8 	addiu	sp,sp,-24
a0802c0c:	afbf0014 	sw	ra,20(sp)
a0802c10:	afbe0010 	sw	s8,16(sp)
a0802c14:	03a0f021 	move	s8,sp
a0802c18:	afc40018 	sw	a0,24(s8)
a0802c1c:	afc5001c 	sw	a1,28(s8)
a0802c20:	8fc40018 	lw	a0,24(s8)
a0802c24:	00002821 	move	a1,zero
a0802c28:	8fc6001c 	lw	a2,28(s8)
a0802c2c:	0c200ae7 	jal	a0802b9c <memset>
a0802c30:	00000000 	nop
a0802c34:	03c0e821 	move	sp,s8
a0802c38:	8fbf0014 	lw	ra,20(sp)
a0802c3c:	8fbe0010 	lw	s8,16(sp)
a0802c40:	27bd0018 	addiu	sp,sp,24
a0802c44:	03e00008 	jr	ra
a0802c48:	00000000 	nop

a0802c4c <strcmp>:
a0802c4c:	27bdfff0 	addiu	sp,sp,-16
a0802c50:	afbe000c 	sw	s8,12(sp)
a0802c54:	03a0f021 	move	s8,sp
a0802c58:	afc40010 	sw	a0,16(s8)
a0802c5c:	afc50014 	sw	a1,20(s8)
a0802c60:	8fc20010 	lw	v0,16(s8)
a0802c64:	80420000 	lb	v0,0(v0)
a0802c68:	10400014 	beqz	v0,a0802cbc <strcmp+0x70>
a0802c6c:	00000000 	nop
a0802c70:	8fc20014 	lw	v0,20(s8)
a0802c74:	80420000 	lb	v0,0(v0)
a0802c78:	10400010 	beqz	v0,a0802cbc <strcmp+0x70>
a0802c7c:	00000000 	nop
a0802c80:	8fc20010 	lw	v0,16(s8)
a0802c84:	80430000 	lb	v1,0(v0)
a0802c88:	8fc20014 	lw	v0,20(s8)
a0802c8c:	80420000 	lb	v0,0(v0)
a0802c90:	00621026 	xor	v0,v1,v0
a0802c94:	2c420001 	sltiu	v0,v0,1
a0802c98:	304300ff 	andi	v1,v0,0xff
a0802c9c:	8fc20010 	lw	v0,16(s8)
a0802ca0:	24420001 	addiu	v0,v0,1
a0802ca4:	afc20010 	sw	v0,16(s8)
a0802ca8:	8fc20014 	lw	v0,20(s8)
a0802cac:	24420001 	addiu	v0,v0,1
a0802cb0:	afc20014 	sw	v0,20(s8)
a0802cb4:	1460ffea 	bnez	v1,a0802c60 <strcmp+0x14>
a0802cb8:	00000000 	nop
a0802cbc:	8fc20010 	lw	v0,16(s8)
a0802cc0:	80420000 	lb	v0,0(v0)
a0802cc4:	14400008 	bnez	v0,a0802ce8 <strcmp+0x9c>
a0802cc8:	00000000 	nop
a0802ccc:	8fc20014 	lw	v0,20(s8)
a0802cd0:	80420000 	lb	v0,0(v0)
a0802cd4:	14400004 	bnez	v0,a0802ce8 <strcmp+0x9c>
a0802cd8:	00000000 	nop
a0802cdc:	afc00000 	sw	zero,0(s8)
a0802ce0:	08200b44 	j	a0802d10 <strcmp+0xc4>
a0802ce4:	00000000 	nop
a0802ce8:	8fc20010 	lw	v0,16(s8)
a0802cec:	80420000 	lb	v0,0(v0)
a0802cf0:	14400005 	bnez	v0,a0802d08 <strcmp+0xbc>
a0802cf4:	00000000 	nop
a0802cf8:	2402ffff 	li	v0,-1
a0802cfc:	afc20000 	sw	v0,0(s8)
a0802d00:	08200b44 	j	a0802d10 <strcmp+0xc4>
a0802d04:	00000000 	nop
a0802d08:	24020001 	li	v0,1
a0802d0c:	afc20000 	sw	v0,0(s8)
a0802d10:	8fc20000 	lw	v0,0(s8)
a0802d14:	03c0e821 	move	sp,s8
a0802d18:	8fbe000c 	lw	s8,12(sp)
a0802d1c:	27bd0010 	addiu	sp,sp,16
a0802d20:	03e00008 	jr	ra
a0802d24:	00000000 	nop

a0802d28 <strcpy>:
a0802d28:	27bdfff0 	addiu	sp,sp,-16
a0802d2c:	afbe000c 	sw	s8,12(sp)
a0802d30:	03a0f021 	move	s8,sp
a0802d34:	afc40010 	sw	a0,16(s8)
a0802d38:	afc50014 	sw	a1,20(s8)
a0802d3c:	8fc20010 	lw	v0,16(s8)
a0802d40:	afc20000 	sw	v0,0(s8)
a0802d44:	08200b5d 	j	a0802d74 <strcpy+0x4c>
a0802d48:	00000000 	nop
a0802d4c:	8fc20014 	lw	v0,20(s8)
a0802d50:	80430000 	lb	v1,0(v0)
a0802d54:	8fc20010 	lw	v0,16(s8)
a0802d58:	a0430000 	sb	v1,0(v0)
a0802d5c:	8fc20010 	lw	v0,16(s8)
a0802d60:	24420001 	addiu	v0,v0,1
a0802d64:	afc20010 	sw	v0,16(s8)
a0802d68:	8fc20014 	lw	v0,20(s8)
a0802d6c:	24420001 	addiu	v0,v0,1
a0802d70:	afc20014 	sw	v0,20(s8)
a0802d74:	8fc20014 	lw	v0,20(s8)
a0802d78:	80420000 	lb	v0,0(v0)
a0802d7c:	1440fff3 	bnez	v0,a0802d4c <strcpy+0x24>
a0802d80:	00000000 	nop
a0802d84:	8fc20010 	lw	v0,16(s8)
a0802d88:	a0400000 	sb	zero,0(v0)
a0802d8c:	8fc20000 	lw	v0,0(s8)
a0802d90:	03c0e821 	move	sp,s8
a0802d94:	8fbe000c 	lw	s8,12(sp)
a0802d98:	27bd0010 	addiu	sp,sp,16
a0802d9c:	03e00008 	jr	ra
a0802da0:	00000000 	nop
	...

a0802db0 <mini_strlen>:
a0802db0:	27bdfff0 	addiu	sp,sp,-16
a0802db4:	afbe000c 	sw	s8,12(sp)
a0802db8:	03a0f021 	move	s8,sp
a0802dbc:	afc40010 	sw	a0,16(s8)
a0802dc0:	afc00000 	sw	zero,0(s8)
a0802dc4:	08200b76 	j	a0802dd8 <mini_strlen+0x28>
a0802dc8:	00000000 	nop
a0802dcc:	8fc20000 	lw	v0,0(s8)
a0802dd0:	24420001 	addiu	v0,v0,1
a0802dd4:	afc20000 	sw	v0,0(s8)
a0802dd8:	8fc30010 	lw	v1,16(s8)
a0802ddc:	8fc20000 	lw	v0,0(s8)
a0802de0:	00621021 	addu	v0,v1,v0
a0802de4:	80420000 	lb	v0,0(v0)
a0802de8:	1440fff8 	bnez	v0,a0802dcc <mini_strlen+0x1c>
a0802dec:	00000000 	nop
a0802df0:	8fc20000 	lw	v0,0(s8)
a0802df4:	03c0e821 	move	sp,s8
a0802df8:	8fbe000c 	lw	s8,12(sp)
a0802dfc:	27bd0010 	addiu	sp,sp,16
a0802e00:	03e00008 	jr	ra
a0802e04:	00000000 	nop

a0802e08 <mini_itoa>:
a0802e08:	27bdffc8 	addiu	sp,sp,-56
a0802e0c:	afbe0034 	sw	s8,52(sp)
a0802e10:	03a0f021 	move	s8,sp
a0802e14:	afc40038 	sw	a0,56(s8)
a0802e18:	afc5003c 	sw	a1,60(s8)
a0802e1c:	afc60040 	sw	a2,64(s8)
a0802e20:	afc70044 	sw	a3,68(s8)
a0802e24:	8fc20048 	lw	v0,72(s8)
a0802e28:	afc20014 	sw	v0,20(s8)
a0802e2c:	afc00010 	sw	zero,16(s8)
a0802e30:	8fc2003c 	lw	v0,60(s8)
a0802e34:	2c420011 	sltiu	v0,v0,17
a0802e38:	14400004 	bnez	v0,a0802e4c <mini_itoa+0x44>
a0802e3c:	00000000 	nop
a0802e40:	afc00020 	sw	zero,32(s8)
a0802e44:	08200c1c 	j	a0803070 <mini_itoa+0x268>
a0802e48:	00000000 	nop
a0802e4c:	8fc20038 	lw	v0,56(s8)
a0802e50:	04410009 	bgez	v0,a0802e78 <mini_itoa+0x70>
a0802e54:	00000000 	nop
a0802e58:	8fc20044 	lw	v0,68(s8)
a0802e5c:	14400006 	bnez	v0,a0802e78 <mini_itoa+0x70>
a0802e60:	00000000 	nop
a0802e64:	24020001 	li	v0,1
a0802e68:	afc20010 	sw	v0,16(s8)
a0802e6c:	8fc20038 	lw	v0,56(s8)
a0802e70:	00021023 	negu	v0,v0
a0802e74:	afc20038 	sw	v0,56(s8)
a0802e78:	8fc30038 	lw	v1,56(s8)
a0802e7c:	8fc2003c 	lw	v0,60(s8)
a0802e80:	0062001b 	divu	zero,v1,v0
a0802e84:	004001f4 	teq	v0,zero,0x7
a0802e88:	00001010 	mfhi	v0
a0802e8c:	afc20004 	sw	v0,4(s8)
a0802e90:	8fc20004 	lw	v0,4(s8)
a0802e94:	2842000a 	slti	v0,v0,10
a0802e98:	1040000a 	beqz	v0,a0802ec4 <mini_itoa+0xbc>
a0802e9c:	00000000 	nop
a0802ea0:	8fc20004 	lw	v0,4(s8)
a0802ea4:	304200ff 	andi	v0,v0,0xff
a0802ea8:	24420030 	addiu	v0,v0,48
a0802eac:	304200ff 	andi	v0,v0,0xff
a0802eb0:	00021600 	sll	v0,v0,0x18
a0802eb4:	00021603 	sra	v0,v0,0x18
a0802eb8:	afc2001c 	sw	v0,28(s8)
a0802ebc:	08200bc4 	j	a0802f10 <mini_itoa+0x108>
a0802ec0:	00000000 	nop
a0802ec4:	8fc20040 	lw	v0,64(s8)
a0802ec8:	10400005 	beqz	v0,a0802ee0 <mini_itoa+0xd8>
a0802ecc:	00000000 	nop
a0802ed0:	24020041 	li	v0,65
a0802ed4:	afc20018 	sw	v0,24(s8)
a0802ed8:	08200bba 	j	a0802ee8 <mini_itoa+0xe0>
a0802edc:	00000000 	nop
a0802ee0:	24030061 	li	v1,97
a0802ee4:	afc30018 	sw	v1,24(s8)
a0802ee8:	8fc20004 	lw	v0,4(s8)
a0802eec:	304200ff 	andi	v0,v0,0xff
a0802ef0:	8fc40018 	lw	a0,24(s8)
a0802ef4:	00821021 	addu	v0,a0,v0
a0802ef8:	304200ff 	andi	v0,v0,0xff
a0802efc:	2442fff6 	addiu	v0,v0,-10
a0802f00:	304200ff 	andi	v0,v0,0xff
a0802f04:	00021600 	sll	v0,v0,0x18
a0802f08:	00021603 	sra	v0,v0,0x18
a0802f0c:	afc2001c 	sw	v0,28(s8)
a0802f10:	8fc20014 	lw	v0,20(s8)
a0802f14:	8fc3001c 	lw	v1,28(s8)
a0802f18:	a0430000 	sb	v1,0(v0)
a0802f1c:	8fc20014 	lw	v0,20(s8)
a0802f20:	24420001 	addiu	v0,v0,1
a0802f24:	afc20014 	sw	v0,20(s8)
a0802f28:	8fc30038 	lw	v1,56(s8)
a0802f2c:	8fc2003c 	lw	v0,60(s8)
a0802f30:	0062001b 	divu	zero,v1,v0
a0802f34:	004001f4 	teq	v0,zero,0x7
a0802f38:	00001012 	mflo	v0
a0802f3c:	afc20038 	sw	v0,56(s8)
a0802f40:	8fc20038 	lw	v0,56(s8)
a0802f44:	1c40ffcc 	bgtz	v0,a0802e78 <mini_itoa+0x70>
a0802f48:	00000000 	nop
a0802f4c:	8fc20014 	lw	v0,20(s8)
a0802f50:	8fc30048 	lw	v1,72(s8)
a0802f54:	00431023 	subu	v0,v0,v1
a0802f58:	afc2000c 	sw	v0,12(s8)
a0802f5c:	08200be2 	j	a0802f88 <mini_itoa+0x180>
a0802f60:	00000000 	nop
a0802f64:	8fc30014 	lw	v1,20(s8)
a0802f68:	24020030 	li	v0,48
a0802f6c:	a0620000 	sb	v0,0(v1)
a0802f70:	8fc20014 	lw	v0,20(s8)
a0802f74:	24420001 	addiu	v0,v0,1
a0802f78:	afc20014 	sw	v0,20(s8)
a0802f7c:	8fc2000c 	lw	v0,12(s8)
a0802f80:	24420001 	addiu	v0,v0,1
a0802f84:	afc2000c 	sw	v0,12(s8)
a0802f88:	8fc2000c 	lw	v0,12(s8)
a0802f8c:	8fc3004c 	lw	v1,76(s8)
a0802f90:	0043102b 	sltu	v0,v0,v1
a0802f94:	1440fff3 	bnez	v0,a0802f64 <mini_itoa+0x15c>
a0802f98:	00000000 	nop
a0802f9c:	8fc20010 	lw	v0,16(s8)
a0802fa0:	10400007 	beqz	v0,a0802fc0 <mini_itoa+0x1b8>
a0802fa4:	00000000 	nop
a0802fa8:	8fc30014 	lw	v1,20(s8)
a0802fac:	2402002d 	li	v0,45
a0802fb0:	a0620000 	sb	v0,0(v1)
a0802fb4:	8fc20014 	lw	v0,20(s8)
a0802fb8:	24420001 	addiu	v0,v0,1
a0802fbc:	afc20014 	sw	v0,20(s8)
a0802fc0:	8fc20014 	lw	v0,20(s8)
a0802fc4:	a0400000 	sb	zero,0(v0)
a0802fc8:	8fc30014 	lw	v1,20(s8)
a0802fcc:	8fc20048 	lw	v0,72(s8)
a0802fd0:	00621023 	subu	v0,v1,v0
a0802fd4:	afc20008 	sw	v0,8(s8)
a0802fd8:	afc0000c 	sw	zero,12(s8)
a0802fdc:	08200c14 	j	a0803050 <mini_itoa+0x248>
a0802fe0:	00000000 	nop
a0802fe4:	8fc30048 	lw	v1,72(s8)
a0802fe8:	8fc2000c 	lw	v0,12(s8)
a0802fec:	00621021 	addu	v0,v1,v0
a0802ff0:	90420000 	lbu	v0,0(v0)
a0802ff4:	a3c20000 	sb	v0,0(s8)
a0802ff8:	8fc30048 	lw	v1,72(s8)
a0802ffc:	8fc2000c 	lw	v0,12(s8)
a0803000:	00622021 	addu	a0,v1,v0
a0803004:	8fc30008 	lw	v1,8(s8)
a0803008:	8fc2000c 	lw	v0,12(s8)
a080300c:	00621023 	subu	v0,v1,v0
a0803010:	2443ffff 	addiu	v1,v0,-1
a0803014:	8fc20048 	lw	v0,72(s8)
a0803018:	00431021 	addu	v0,v0,v1
a080301c:	80420000 	lb	v0,0(v0)
a0803020:	a0820000 	sb	v0,0(a0)
a0803024:	8fc30008 	lw	v1,8(s8)
a0803028:	8fc2000c 	lw	v0,12(s8)
a080302c:	00621023 	subu	v0,v1,v0
a0803030:	2443ffff 	addiu	v1,v0,-1
a0803034:	8fc20048 	lw	v0,72(s8)
a0803038:	00431821 	addu	v1,v0,v1
a080303c:	93c20000 	lbu	v0,0(s8)
a0803040:	a0620000 	sb	v0,0(v1)
a0803044:	8fc2000c 	lw	v0,12(s8)
a0803048:	24420001 	addiu	v0,v0,1
a080304c:	afc2000c 	sw	v0,12(s8)
a0803050:	8fc20008 	lw	v0,8(s8)
a0803054:	00021842 	srl	v1,v0,0x1
a0803058:	8fc2000c 	lw	v0,12(s8)
a080305c:	0043102b 	sltu	v0,v0,v1
a0803060:	1440ffe0 	bnez	v0,a0802fe4 <mini_itoa+0x1dc>
a0803064:	00000000 	nop
a0803068:	8fc20008 	lw	v0,8(s8)
a080306c:	afc20020 	sw	v0,32(s8)
a0803070:	8fc20020 	lw	v0,32(s8)
a0803074:	03c0e821 	move	sp,s8
a0803078:	8fbe0034 	lw	s8,52(sp)
a080307c:	27bd0038 	addiu	sp,sp,56
a0803080:	03e00008 	jr	ra
a0803084:	00000000 	nop

a0803088 <_putc>:
a0803088:	27bdfff0 	addiu	sp,sp,-16
a080308c:	afbe000c 	sw	s8,12(sp)
a0803090:	03a0f021 	move	s8,sp
a0803094:	afc40010 	sw	a0,16(s8)
a0803098:	afc50014 	sw	a1,20(s8)
a080309c:	8fc20014 	lw	v0,20(s8)
a08030a0:	8c420004 	lw	v0,4(v0)
a08030a4:	00401821 	move	v1,v0
a08030a8:	8fc20014 	lw	v0,20(s8)
a08030ac:	8c420000 	lw	v0,0(v0)
a08030b0:	00621023 	subu	v0,v1,v0
a08030b4:	24420001 	addiu	v0,v0,1
a08030b8:	00401821 	move	v1,v0
a08030bc:	8fc20014 	lw	v0,20(s8)
a08030c0:	8c420008 	lw	v0,8(v0)
a08030c4:	0062102b 	sltu	v0,v1,v0
a08030c8:	14400004 	bnez	v0,a08030dc <_putc+0x54>
a08030cc:	00000000 	nop
a08030d0:	afc00000 	sw	zero,0(s8)
a08030d4:	08200c45 	j	a0803114 <_putc+0x8c>
a08030d8:	00000000 	nop
a08030dc:	8fc20014 	lw	v0,20(s8)
a08030e0:	8c430004 	lw	v1,4(v0)
a08030e4:	8fc20010 	lw	v0,16(s8)
a08030e8:	00021600 	sll	v0,v0,0x18
a08030ec:	00021603 	sra	v0,v0,0x18
a08030f0:	a0620000 	sb	v0,0(v1)
a08030f4:	24630001 	addiu	v1,v1,1
a08030f8:	8fc20014 	lw	v0,20(s8)
a08030fc:	ac430004 	sw	v1,4(v0)
a0803100:	8fc20014 	lw	v0,20(s8)
a0803104:	8c420004 	lw	v0,4(v0)
a0803108:	a0400000 	sb	zero,0(v0)
a080310c:	24020001 	li	v0,1
a0803110:	afc20000 	sw	v0,0(s8)
a0803114:	8fc20000 	lw	v0,0(s8)
a0803118:	03c0e821 	move	sp,s8
a080311c:	8fbe000c 	lw	s8,12(sp)
a0803120:	27bd0010 	addiu	sp,sp,16
a0803124:	03e00008 	jr	ra
a0803128:	00000000 	nop

a080312c <_puts>:
a080312c:	27bdfff0 	addiu	sp,sp,-16
a0803130:	afbe000c 	sw	s8,12(sp)
a0803134:	03a0f021 	move	s8,sp
a0803138:	afc40010 	sw	a0,16(s8)
a080313c:	afc50014 	sw	a1,20(s8)
a0803140:	afc60018 	sw	a2,24(s8)
a0803144:	8fc20018 	lw	v0,24(s8)
a0803148:	8c440008 	lw	a0,8(v0)
a080314c:	8fc20018 	lw	v0,24(s8)
a0803150:	8c420000 	lw	v0,0(v0)
a0803154:	00401821 	move	v1,v0
a0803158:	8fc20018 	lw	v0,24(s8)
a080315c:	8c420004 	lw	v0,4(v0)
a0803160:	00621023 	subu	v0,v1,v0
a0803164:	00821021 	addu	v0,a0,v0
a0803168:	2443ffff 	addiu	v1,v0,-1
a080316c:	8fc20014 	lw	v0,20(s8)
a0803170:	0062102b 	sltu	v0,v1,v0
a0803174:	1040000c 	beqz	v0,a08031a8 <_puts+0x7c>
a0803178:	00000000 	nop
a080317c:	8fc20018 	lw	v0,24(s8)
a0803180:	8c440008 	lw	a0,8(v0)
a0803184:	8fc20018 	lw	v0,24(s8)
a0803188:	8c420000 	lw	v0,0(v0)
a080318c:	00401821 	move	v1,v0
a0803190:	8fc20018 	lw	v0,24(s8)
a0803194:	8c420004 	lw	v0,4(v0)
a0803198:	00621023 	subu	v0,v1,v0
a080319c:	00821021 	addu	v0,a0,v0
a08031a0:	2442ffff 	addiu	v0,v0,-1
a08031a4:	afc20014 	sw	v0,20(s8)
a08031a8:	afc00000 	sw	zero,0(s8)
a08031ac:	08200c7a 	j	a08031e8 <_puts+0xbc>
a08031b0:	00000000 	nop
a08031b4:	8fc20018 	lw	v0,24(s8)
a08031b8:	8c440004 	lw	a0,4(v0)
a08031bc:	8fc30010 	lw	v1,16(s8)
a08031c0:	8fc20000 	lw	v0,0(s8)
a08031c4:	00621021 	addu	v0,v1,v0
a08031c8:	80420000 	lb	v0,0(v0)
a08031cc:	a0820000 	sb	v0,0(a0)
a08031d0:	24830001 	addiu	v1,a0,1
a08031d4:	8fc20018 	lw	v0,24(s8)
a08031d8:	ac430004 	sw	v1,4(v0)
a08031dc:	8fc20000 	lw	v0,0(s8)
a08031e0:	24420001 	addiu	v0,v0,1
a08031e4:	afc20000 	sw	v0,0(s8)
a08031e8:	8fc20000 	lw	v0,0(s8)
a08031ec:	8fc30014 	lw	v1,20(s8)
a08031f0:	0043102b 	sltu	v0,v0,v1
a08031f4:	1440ffef 	bnez	v0,a08031b4 <_puts+0x88>
a08031f8:	00000000 	nop
a08031fc:	8fc20018 	lw	v0,24(s8)
a0803200:	8c420004 	lw	v0,4(v0)
a0803204:	a0400000 	sb	zero,0(v0)
a0803208:	8fc20014 	lw	v0,20(s8)
a080320c:	03c0e821 	move	sp,s8
a0803210:	8fbe000c 	lw	s8,12(sp)
a0803214:	27bd0010 	addiu	sp,sp,16
a0803218:	03e00008 	jr	ra
a080321c:	00000000 	nop

a0803220 <mini_vsnprintf>:
a0803220:	27bdffa8 	addiu	sp,sp,-88
a0803224:	afbf0054 	sw	ra,84(sp)
a0803228:	afbe0050 	sw	s8,80(sp)
a080322c:	03a0f021 	move	s8,sp
a0803230:	afc40058 	sw	a0,88(s8)
a0803234:	afc5005c 	sw	a1,92(s8)
a0803238:	afc60060 	sw	a2,96(s8)
a080323c:	afc70064 	sw	a3,100(s8)
a0803240:	8fc20058 	lw	v0,88(s8)
a0803244:	afc20024 	sw	v0,36(s8)
a0803248:	8fc20058 	lw	v0,88(s8)
a080324c:	afc20028 	sw	v0,40(s8)
a0803250:	8fc2005c 	lw	v0,92(s8)
a0803254:	afc2002c 	sw	v0,44(s8)
a0803258:	08200d54 	j	a0803550 <mini_vsnprintf+0x330>
a080325c:	00000000 	nop
a0803260:	8fc20028 	lw	v0,40(s8)
a0803264:	00401821 	move	v1,v0
a0803268:	8fc20024 	lw	v0,36(s8)
a080326c:	00621023 	subu	v0,v1,v0
a0803270:	24420001 	addiu	v0,v0,1
a0803274:	00401821 	move	v1,v0
a0803278:	8fc2002c 	lw	v0,44(s8)
a080327c:	0062102b 	sltu	v0,v1,v0
a0803280:	104000be 	beqz	v0,a080357c <mini_vsnprintf+0x35c>
a0803284:	00000000 	nop
a0803288:	83c30021 	lb	v1,33(s8)
a080328c:	24020025 	li	v0,37
a0803290:	10620009 	beq	v1,v0,a08032b8 <mini_vsnprintf+0x98>
a0803294:	00000000 	nop
a0803298:	83c20021 	lb	v0,33(s8)
a080329c:	27c30024 	addiu	v1,s8,36
a08032a0:	00402021 	move	a0,v0
a08032a4:	00602821 	move	a1,v1
a08032a8:	0c200c22 	jal	a0803088 <_putc>
a08032ac:	00000000 	nop
a08032b0:	08200d54 	j	a0803550 <mini_vsnprintf+0x330>
a08032b4:	00000000 	nop
a08032b8:	a3c00020 	sb	zero,32(s8)
a08032bc:	8fc20060 	lw	v0,96(s8)
a08032c0:	90420000 	lbu	v0,0(v0)
a08032c4:	a3c20021 	sb	v0,33(s8)
a08032c8:	8fc20060 	lw	v0,96(s8)
a08032cc:	24420001 	addiu	v0,v0,1
a08032d0:	afc20060 	sw	v0,96(s8)
a08032d4:	83c30021 	lb	v1,33(s8)
a08032d8:	24020030 	li	v0,48
a08032dc:	1462001c 	bne	v1,v0,a0803350 <mini_vsnprintf+0x130>
a08032e0:	00000000 	nop
a08032e4:	8fc20060 	lw	v0,96(s8)
a08032e8:	90420000 	lbu	v0,0(v0)
a08032ec:	a3c20021 	sb	v0,33(s8)
a08032f0:	8fc20060 	lw	v0,96(s8)
a08032f4:	24420001 	addiu	v0,v0,1
a08032f8:	afc20060 	sw	v0,96(s8)
a08032fc:	83c20021 	lb	v0,33(s8)
a0803300:	1040009e 	beqz	v0,a080357c <mini_vsnprintf+0x35c>
a0803304:	00000000 	nop
a0803308:	83c20021 	lb	v0,33(s8)
a080330c:	28420030 	slti	v0,v0,48
a0803310:	14400009 	bnez	v0,a0803338 <mini_vsnprintf+0x118>
a0803314:	00000000 	nop
a0803318:	83c20021 	lb	v0,33(s8)
a080331c:	2842003a 	slti	v0,v0,58
a0803320:	10400005 	beqz	v0,a0803338 <mini_vsnprintf+0x118>
a0803324:	00000000 	nop
a0803328:	93c20021 	lbu	v0,33(s8)
a080332c:	2442ffd0 	addiu	v0,v0,-48
a0803330:	304200ff 	andi	v0,v0,0xff
a0803334:	a3c20020 	sb	v0,32(s8)
a0803338:	8fc20060 	lw	v0,96(s8)
a080333c:	90420000 	lbu	v0,0(v0)
a0803340:	a3c20021 	sb	v0,33(s8)
a0803344:	8fc20060 	lw	v0,96(s8)
a0803348:	24420001 	addiu	v0,v0,1
a080334c:	afc20060 	sw	v0,96(s8)
a0803350:	83c20021 	lb	v0,33(s8)
a0803354:	afc20048 	sw	v0,72(s8)
a0803358:	24020064 	li	v0,100
a080335c:	8fc30048 	lw	v1,72(s8)
a0803360:	10620020 	beq	v1,v0,a08033e4 <mini_vsnprintf+0x1c4>
a0803364:	00000000 	nop
a0803368:	8fc30048 	lw	v1,72(s8)
a080336c:	28620065 	slti	v0,v1,101
a0803370:	1040000e 	beqz	v0,a08033ac <mini_vsnprintf+0x18c>
a0803374:	00000000 	nop
a0803378:	24020058 	li	v0,88
a080337c:	8fc30048 	lw	v1,72(s8)
a0803380:	10620033 	beq	v1,v0,a0803450 <mini_vsnprintf+0x230>
a0803384:	00000000 	nop
a0803388:	24020063 	li	v0,99
a080338c:	8fc30048 	lw	v1,72(s8)
a0803390:	1062004a 	beq	v1,v0,a08034bc <mini_vsnprintf+0x29c>
a0803394:	00000000 	nop
a0803398:	8fc20048 	lw	v0,72(s8)
a080339c:	10400077 	beqz	v0,a080357c <mini_vsnprintf+0x35c>
a08033a0:	00000000 	nop
a08033a4:	08200d4e 	j	a0803538 <mini_vsnprintf+0x318>
a08033a8:	00000000 	nop
a08033ac:	24020075 	li	v0,117
a08033b0:	8fc30048 	lw	v1,72(s8)
a08033b4:	1062000b 	beq	v1,v0,a08033e4 <mini_vsnprintf+0x1c4>
a08033b8:	00000000 	nop
a08033bc:	24020078 	li	v0,120
a08033c0:	8fc30048 	lw	v1,72(s8)
a08033c4:	10620022 	beq	v1,v0,a0803450 <mini_vsnprintf+0x230>
a08033c8:	00000000 	nop
a08033cc:	24020073 	li	v0,115
a08033d0:	8fc30048 	lw	v1,72(s8)
a08033d4:	10620047 	beq	v1,v0,a08034f4 <mini_vsnprintf+0x2d4>
a08033d8:	00000000 	nop
a08033dc:	08200d4e 	j	a0803538 <mini_vsnprintf+0x318>
a08033e0:	00000000 	nop
a08033e4:	8fc30064 	lw	v1,100(s8)
a08033e8:	24620004 	addiu	v0,v1,4
a08033ec:	afc20064 	sw	v0,100(s8)
a08033f0:	00601021 	move	v0,v1
a08033f4:	8c420000 	lw	v0,0(v0)
a08033f8:	00402021 	move	a0,v0
a08033fc:	83c20021 	lb	v0,33(s8)
a0803400:	38420075 	xori	v0,v0,0x75
a0803404:	2c470001 	sltiu	a3,v0,1
a0803408:	83c30020 	lb	v1,32(s8)
a080340c:	27c20030 	addiu	v0,s8,48
a0803410:	afa20010 	sw	v0,16(sp)
a0803414:	afa30014 	sw	v1,20(sp)
a0803418:	2405000a 	li	a1,10
a080341c:	00003021 	move	a2,zero
a0803420:	0c200b82 	jal	a0802e08 <mini_itoa>
a0803424:	00000000 	nop
a0803428:	afc20018 	sw	v0,24(s8)
a080342c:	27c20030 	addiu	v0,s8,48
a0803430:	27c30024 	addiu	v1,s8,36
a0803434:	00402021 	move	a0,v0
a0803438:	8fc50018 	lw	a1,24(s8)
a080343c:	00603021 	move	a2,v1
a0803440:	0c200c4b 	jal	a080312c <_puts>
a0803444:	00000000 	nop
a0803448:	08200d54 	j	a0803550 <mini_vsnprintf+0x330>
a080344c:	00000000 	nop
a0803450:	8fc30064 	lw	v1,100(s8)
a0803454:	24620004 	addiu	v0,v1,4
a0803458:	afc20064 	sw	v0,100(s8)
a080345c:	00601021 	move	v0,v1
a0803460:	8c420000 	lw	v0,0(v0)
a0803464:	00402021 	move	a0,v0
a0803468:	83c20021 	lb	v0,33(s8)
a080346c:	38420058 	xori	v0,v0,0x58
a0803470:	2c460001 	sltiu	a2,v0,1
a0803474:	83c30020 	lb	v1,32(s8)
a0803478:	27c20030 	addiu	v0,s8,48
a080347c:	afa20010 	sw	v0,16(sp)
a0803480:	afa30014 	sw	v1,20(sp)
a0803484:	24050010 	li	a1,16
a0803488:	24070001 	li	a3,1
a080348c:	0c200b82 	jal	a0802e08 <mini_itoa>
a0803490:	00000000 	nop
a0803494:	afc20018 	sw	v0,24(s8)
a0803498:	27c20030 	addiu	v0,s8,48
a080349c:	27c30024 	addiu	v1,s8,36
a08034a0:	00402021 	move	a0,v0
a08034a4:	8fc50018 	lw	a1,24(s8)
a08034a8:	00603021 	move	a2,v1
a08034ac:	0c200c4b 	jal	a080312c <_puts>
a08034b0:	00000000 	nop
a08034b4:	08200d54 	j	a0803550 <mini_vsnprintf+0x330>
a08034b8:	00000000 	nop
a08034bc:	8fc30064 	lw	v1,100(s8)
a08034c0:	24620004 	addiu	v0,v1,4
a08034c4:	afc20064 	sw	v0,100(s8)
a08034c8:	00601021 	move	v0,v1
a08034cc:	8c420000 	lw	v0,0(v0)
a08034d0:	00021600 	sll	v0,v0,0x18
a08034d4:	00021603 	sra	v0,v0,0x18
a08034d8:	27c30024 	addiu	v1,s8,36
a08034dc:	00402021 	move	a0,v0
a08034e0:	00602821 	move	a1,v1
a08034e4:	0c200c22 	jal	a0803088 <_putc>
a08034e8:	00000000 	nop
a08034ec:	08200d54 	j	a0803550 <mini_vsnprintf+0x330>
a08034f0:	00000000 	nop
a08034f4:	8fc30064 	lw	v1,100(s8)
a08034f8:	24620004 	addiu	v0,v1,4
a08034fc:	afc20064 	sw	v0,100(s8)
a0803500:	00601021 	move	v0,v1
a0803504:	8c420000 	lw	v0,0(v0)
a0803508:	afc2001c 	sw	v0,28(s8)
a080350c:	8fc4001c 	lw	a0,28(s8)
a0803510:	0c200b6c 	jal	a0802db0 <mini_strlen>
a0803514:	00000000 	nop
a0803518:	27c30024 	addiu	v1,s8,36
a080351c:	8fc4001c 	lw	a0,28(s8)
a0803520:	00402821 	move	a1,v0
a0803524:	00603021 	move	a2,v1
a0803528:	0c200c4b 	jal	a080312c <_puts>
a080352c:	00000000 	nop
a0803530:	08200d54 	j	a0803550 <mini_vsnprintf+0x330>
a0803534:	00000000 	nop
a0803538:	83c20021 	lb	v0,33(s8)
a080353c:	27c30024 	addiu	v1,s8,36
a0803540:	00402021 	move	a0,v0
a0803544:	00602821 	move	a1,v1
a0803548:	0c200c22 	jal	a0803088 <_putc>
a080354c:	00000000 	nop
a0803550:	8fc20060 	lw	v0,96(s8)
a0803554:	90420000 	lbu	v0,0(v0)
a0803558:	a3c20021 	sb	v0,33(s8)
a080355c:	83c20021 	lb	v0,33(s8)
a0803560:	0002102b 	sltu	v0,zero,v0
a0803564:	304300ff 	andi	v1,v0,0xff
a0803568:	8fc20060 	lw	v0,96(s8)
a080356c:	24420001 	addiu	v0,v0,1
a0803570:	afc20060 	sw	v0,96(s8)
a0803574:	1460ff3a 	bnez	v1,a0803260 <mini_vsnprintf+0x40>
a0803578:	00000000 	nop
a080357c:	8fc20028 	lw	v0,40(s8)
a0803580:	00401821 	move	v1,v0
a0803584:	8fc20024 	lw	v0,36(s8)
a0803588:	00621023 	subu	v0,v1,v0
a080358c:	03c0e821 	move	sp,s8
a0803590:	8fbf0054 	lw	ra,84(sp)
a0803594:	8fbe0050 	lw	s8,80(sp)
a0803598:	27bd0058 	addiu	sp,sp,88
a080359c:	03e00008 	jr	ra
a08035a0:	00000000 	nop

a08035a4 <printk>:
a08035a4:	27bdfee0 	addiu	sp,sp,-288
a08035a8:	afbf011c 	sw	ra,284(sp)
a08035ac:	afbe0118 	sw	s8,280(sp)
a08035b0:	03a0f021 	move	s8,sp
a08035b4:	afc50124 	sw	a1,292(s8)
a08035b8:	afc60128 	sw	a2,296(s8)
a08035bc:	afc7012c 	sw	a3,300(s8)
a08035c0:	afc40120 	sw	a0,288(s8)
a08035c4:	27c20124 	addiu	v0,s8,292
a08035c8:	afc20014 	sw	v0,20(s8)
a08035cc:	8fc30014 	lw	v1,20(s8)
a08035d0:	27c20018 	addiu	v0,s8,24
a08035d4:	00402021 	move	a0,v0
a08035d8:	24050100 	li	a1,256
a08035dc:	8fc60120 	lw	a2,288(s8)
a08035e0:	00603821 	move	a3,v1
a08035e4:	0c200c88 	jal	a0803220 <mini_vsnprintf>
a08035e8:	00000000 	nop
a08035ec:	afc20010 	sw	v0,16(s8)
a08035f0:	8fc30010 	lw	v1,16(s8)
a08035f4:	27c20010 	addiu	v0,s8,16
a08035f8:	00431021 	addu	v0,v0,v1
a08035fc:	a0400008 	sb	zero,8(v0)
a0803600:	27c20018 	addiu	v0,s8,24
a0803604:	00402021 	move	a0,v0
a0803608:	0c2001f4 	jal	a08007d0 <port_write>
a080360c:	00000000 	nop
a0803610:	8fc20010 	lw	v0,16(s8)
a0803614:	03c0e821 	move	sp,s8
a0803618:	8fbf011c 	lw	ra,284(sp)
a080361c:	8fbe0118 	lw	s8,280(sp)
a0803620:	27bd0120 	addiu	sp,sp,288
a0803624:	03e00008 	jr	ra
a0803628:	00000000 	nop

a080362c <printf>:
a080362c:	27bdfee0 	addiu	sp,sp,-288
a0803630:	afbf011c 	sw	ra,284(sp)
a0803634:	afbe0118 	sw	s8,280(sp)
a0803638:	03a0f021 	move	s8,sp
a080363c:	afc50124 	sw	a1,292(s8)
a0803640:	afc60128 	sw	a2,296(s8)
a0803644:	afc7012c 	sw	a3,300(s8)
a0803648:	afc40120 	sw	a0,288(s8)
a080364c:	27c20124 	addiu	v0,s8,292
a0803650:	afc20014 	sw	v0,20(s8)
a0803654:	8fc30014 	lw	v1,20(s8)
a0803658:	27c20018 	addiu	v0,s8,24
a080365c:	00402021 	move	a0,v0
a0803660:	24050100 	li	a1,256
a0803664:	8fc60120 	lw	a2,288(s8)
a0803668:	00603821 	move	a3,v1
a080366c:	0c200c88 	jal	a0803220 <mini_vsnprintf>
a0803670:	00000000 	nop
a0803674:	afc20010 	sw	v0,16(s8)
a0803678:	8fc30010 	lw	v1,16(s8)
a080367c:	27c20010 	addiu	v0,s8,16
a0803680:	00431021 	addu	v0,v0,v1
a0803684:	a0400008 	sb	zero,8(v0)
a0803688:	27c20018 	addiu	v0,s8,24
a080368c:	00402021 	move	a0,v0
a0803690:	0c200a48 	jal	a0802920 <sys_write>
a0803694:	00000000 	nop
a0803698:	8fc20010 	lw	v0,16(s8)
a080369c:	03c0e821 	move	sp,s8
a08036a0:	8fbf011c 	lw	ra,284(sp)
a08036a4:	8fbe0118 	lw	s8,280(sp)
a08036a8:	27bd0120 	addiu	sp,sp,288
a08036ac:	03e00008 	jr	ra
a08036b0:	00000000 	nop
	...

a08036c0 <printk_task1>:
a08036c0:	27bdffe0 	addiu	sp,sp,-32
a08036c4:	afbf001c 	sw	ra,28(sp)
a08036c8:	afbe0018 	sw	s8,24(sp)
a08036cc:	03a0f021 	move	s8,sp
a08036d0:	24020001 	li	v0,1
a08036d4:	afc20010 	sw	v0,16(s8)
a08036d8:	afc00014 	sw	zero,20(s8)
a08036dc:	0c2000d3 	jal	a080034c <close_int>
a08036e0:	00000000 	nop
a08036e4:	24040001 	li	a0,1
a08036e8:	8fc50010 	lw	a1,16(s8)
a08036ec:	0c200208 	jal	a0800820 <vt100_move_cursor>
a08036f0:	00000000 	nop
a08036f4:	3c02a080 	lui	v0,0xa080
a08036f8:	24444120 	addiu	a0,v0,16672
a08036fc:	8fc50014 	lw	a1,20(s8)
a0803700:	0c200d69 	jal	a08035a4 <printk>
a0803704:	00000000 	nop
a0803708:	0c2000cd 	jal	a0800334 <open_int>
a080370c:	00000000 	nop
a0803710:	8fc20014 	lw	v0,20(s8)
a0803714:	24420001 	addiu	v0,v0,1
a0803718:	afc20014 	sw	v0,20(s8)
a080371c:	08200db7 	j	a08036dc <printk_task1+0x1c>
a0803720:	00000000 	nop

a0803724 <printk_task2>:
a0803724:	27bdffe0 	addiu	sp,sp,-32
a0803728:	afbf001c 	sw	ra,28(sp)
a080372c:	afbe0018 	sw	s8,24(sp)
a0803730:	03a0f021 	move	s8,sp
a0803734:	24020002 	li	v0,2
a0803738:	afc20010 	sw	v0,16(s8)
a080373c:	afc00014 	sw	zero,20(s8)
a0803740:	0c2000d3 	jal	a080034c <close_int>
a0803744:	00000000 	nop
a0803748:	24040001 	li	a0,1
a080374c:	8fc50010 	lw	a1,16(s8)
a0803750:	0c200208 	jal	a0800820 <vt100_move_cursor>
a0803754:	00000000 	nop
a0803758:	3c02a080 	lui	v0,0xa080
a080375c:	24444120 	addiu	a0,v0,16672
a0803760:	8fc50014 	lw	a1,20(s8)
a0803764:	0c200d69 	jal	a08035a4 <printk>
a0803768:	00000000 	nop
a080376c:	0c2000cd 	jal	a0800334 <open_int>
a0803770:	00000000 	nop
a0803774:	8fc20014 	lw	v0,20(s8)
a0803778:	24420001 	addiu	v0,v0,1
a080377c:	afc20014 	sw	v0,20(s8)
a0803780:	08200dd0 	j	a0803740 <printk_task2+0x1c>
a0803784:	00000000 	nop

a0803788 <drawing_task1>:
a0803788:	27bdffe0 	addiu	sp,sp,-32
a080378c:	afbf001c 	sw	ra,28(sp)
a0803790:	afbe0018 	sw	s8,24(sp)
a0803794:	03a0f021 	move	s8,sp
a0803798:	24020016 	li	v0,22
a080379c:	afc20010 	sw	v0,16(s8)
a08037a0:	0c2000d3 	jal	a080034c <close_int>
a08037a4:	00000000 	nop
a08037a8:	2402003c 	li	v0,60
a08037ac:	afc20014 	sw	v0,20(s8)
a08037b0:	08200e1f 	j	a080387c <drawing_task1+0xf4>
a08037b4:	00000000 	nop
a08037b8:	8fc40014 	lw	a0,20(s8)
a08037bc:	8fc50010 	lw	a1,16(s8)
a08037c0:	0c200208 	jal	a0800820 <vt100_move_cursor>
a08037c4:	00000000 	nop
a08037c8:	3c02a080 	lui	v0,0xa080
a08037cc:	24444150 	addiu	a0,v0,16720
a08037d0:	3c02a080 	lui	v0,0xa080
a08037d4:	24454484 	addiu	a1,v0,17540
a08037d8:	0c200d69 	jal	a08035a4 <printk>
a08037dc:	00000000 	nop
a08037e0:	8fc20010 	lw	v0,16(s8)
a08037e4:	24420001 	addiu	v0,v0,1
a08037e8:	8fc40014 	lw	a0,20(s8)
a08037ec:	00402821 	move	a1,v0
a08037f0:	0c200208 	jal	a0800820 <vt100_move_cursor>
a08037f4:	00000000 	nop
a08037f8:	3c02a080 	lui	v0,0xa080
a08037fc:	24444150 	addiu	a0,v0,16720
a0803800:	3c02a080 	lui	v0,0xa080
a0803804:	24454498 	addiu	a1,v0,17560
a0803808:	0c200d69 	jal	a08035a4 <printk>
a080380c:	00000000 	nop
a0803810:	8fc20010 	lw	v0,16(s8)
a0803814:	24420002 	addiu	v0,v0,2
a0803818:	8fc40014 	lw	a0,20(s8)
a080381c:	00402821 	move	a1,v0
a0803820:	0c200208 	jal	a0800820 <vt100_move_cursor>
a0803824:	00000000 	nop
a0803828:	3c02a080 	lui	v0,0xa080
a080382c:	24444150 	addiu	a0,v0,16720
a0803830:	3c02a080 	lui	v0,0xa080
a0803834:	244544ac 	addiu	a1,v0,17580
a0803838:	0c200d69 	jal	a08035a4 <printk>
a080383c:	00000000 	nop
a0803840:	8fc20010 	lw	v0,16(s8)
a0803844:	24420003 	addiu	v0,v0,3
a0803848:	8fc40014 	lw	a0,20(s8)
a080384c:	00402821 	move	a1,v0
a0803850:	0c200208 	jal	a0800820 <vt100_move_cursor>
a0803854:	00000000 	nop
a0803858:	3c02a080 	lui	v0,0xa080
a080385c:	24444150 	addiu	a0,v0,16720
a0803860:	3c02a080 	lui	v0,0xa080
a0803864:	244544c0 	addiu	a1,v0,17600
a0803868:	0c200d69 	jal	a08035a4 <printk>
a080386c:	00000000 	nop
a0803870:	8fc20014 	lw	v0,20(s8)
a0803874:	2442ffff 	addiu	v0,v0,-1
a0803878:	afc20014 	sw	v0,20(s8)
a080387c:	8fc20014 	lw	v0,20(s8)
a0803880:	1c40ffcd 	bgtz	v0,a08037b8 <drawing_task1+0x30>
a0803884:	00000000 	nop
a0803888:	24040001 	li	a0,1
a080388c:	8fc50010 	lw	a1,16(s8)
a0803890:	0c200208 	jal	a0800820 <vt100_move_cursor>
a0803894:	00000000 	nop
a0803898:	3c02a080 	lui	v0,0xa080
a080389c:	24444150 	addiu	a0,v0,16720
a08038a0:	3c02a080 	lui	v0,0xa080
a08038a4:	24454470 	addiu	a1,v0,17520
a08038a8:	0c200d69 	jal	a08035a4 <printk>
a08038ac:	00000000 	nop
a08038b0:	8fc20010 	lw	v0,16(s8)
a08038b4:	24420001 	addiu	v0,v0,1
a08038b8:	24040001 	li	a0,1
a08038bc:	00402821 	move	a1,v0
a08038c0:	0c200208 	jal	a0800820 <vt100_move_cursor>
a08038c4:	00000000 	nop
a08038c8:	3c02a080 	lui	v0,0xa080
a08038cc:	24444150 	addiu	a0,v0,16720
a08038d0:	3c02a080 	lui	v0,0xa080
a08038d4:	24454470 	addiu	a1,v0,17520
a08038d8:	0c200d69 	jal	a08035a4 <printk>
a08038dc:	00000000 	nop
a08038e0:	8fc20010 	lw	v0,16(s8)
a08038e4:	24420002 	addiu	v0,v0,2
a08038e8:	24040001 	li	a0,1
a08038ec:	00402821 	move	a1,v0
a08038f0:	0c200208 	jal	a0800820 <vt100_move_cursor>
a08038f4:	00000000 	nop
a08038f8:	3c02a080 	lui	v0,0xa080
a08038fc:	24444150 	addiu	a0,v0,16720
a0803900:	3c02a080 	lui	v0,0xa080
a0803904:	24454470 	addiu	a1,v0,17520
a0803908:	0c200d69 	jal	a08035a4 <printk>
a080390c:	00000000 	nop
a0803910:	8fc20010 	lw	v0,16(s8)
a0803914:	24420003 	addiu	v0,v0,3
a0803918:	24040001 	li	a0,1
a080391c:	00402821 	move	a1,v0
a0803920:	0c200208 	jal	a0800820 <vt100_move_cursor>
a0803924:	00000000 	nop
a0803928:	3c02a080 	lui	v0,0xa080
a080392c:	24444150 	addiu	a0,v0,16720
a0803930:	3c02a080 	lui	v0,0xa080
a0803934:	24454470 	addiu	a1,v0,17520
a0803938:	0c200d69 	jal	a08035a4 <printk>
a080393c:	00000000 	nop
a0803940:	0c2000cd 	jal	a0800334 <open_int>
a0803944:	00000000 	nop
a0803948:	08200de8 	j	a08037a0 <drawing_task1+0x18>
a080394c:	00000000 	nop

a0803950 <printf_task1>:
a0803950:	27bdffe0 	addiu	sp,sp,-32
a0803954:	afbf001c 	sw	ra,28(sp)
a0803958:	afbe0018 	sw	s8,24(sp)
a080395c:	03a0f021 	move	s8,sp
a0803960:	24020001 	li	v0,1
a0803964:	afc20010 	sw	v0,16(s8)
a0803968:	afc00014 	sw	zero,20(s8)
a080396c:	24040001 	li	a0,1
a0803970:	8fc50010 	lw	a1,16(s8)
a0803974:	0c200a6a 	jal	a08029a8 <sys_move_cursor>
a0803978:	00000000 	nop
a080397c:	3c02a080 	lui	v0,0xa080
a0803980:	24444160 	addiu	a0,v0,16736
a0803984:	8fc50014 	lw	a1,20(s8)
a0803988:	0c200d8b 	jal	a080362c <printf>
a080398c:	00000000 	nop
a0803990:	8fc20014 	lw	v0,20(s8)
a0803994:	24420001 	addiu	v0,v0,1
a0803998:	afc20014 	sw	v0,20(s8)
a080399c:	08200e5b 	j	a080396c <printf_task1+0x1c>
a08039a0:	00000000 	nop

a08039a4 <printf_task2>:
a08039a4:	27bdffe0 	addiu	sp,sp,-32
a08039a8:	afbf001c 	sw	ra,28(sp)
a08039ac:	afbe0018 	sw	s8,24(sp)
a08039b0:	03a0f021 	move	s8,sp
a08039b4:	24020002 	li	v0,2
a08039b8:	afc20010 	sw	v0,16(s8)
a08039bc:	afc00014 	sw	zero,20(s8)
a08039c0:	24040001 	li	a0,1
a08039c4:	8fc50010 	lw	a1,16(s8)
a08039c8:	0c200a6a 	jal	a08029a8 <sys_move_cursor>
a08039cc:	00000000 	nop
a08039d0:	3c02a080 	lui	v0,0xa080
a08039d4:	24444160 	addiu	a0,v0,16736
a08039d8:	8fc50014 	lw	a1,20(s8)
a08039dc:	0c200d8b 	jal	a080362c <printf>
a08039e0:	00000000 	nop
a08039e4:	8fc20014 	lw	v0,20(s8)
a08039e8:	24420001 	addiu	v0,v0,1
a08039ec:	afc20014 	sw	v0,20(s8)
a08039f0:	08200e70 	j	a08039c0 <printf_task2+0x1c>
a08039f4:	00000000 	nop

a08039f8 <drawing_task2>:
a08039f8:	27bdffe0 	addiu	sp,sp,-32
a08039fc:	afbf001c 	sw	ra,28(sp)
a0803a00:	afbe0018 	sw	s8,24(sp)
a0803a04:	03a0f021 	move	s8,sp
a0803a08:	24020016 	li	v0,22
a0803a0c:	afc20010 	sw	v0,16(s8)
a0803a10:	24020037 	li	v0,55
a0803a14:	afc20014 	sw	v0,20(s8)
a0803a18:	08200eb9 	j	a0803ae4 <drawing_task2+0xec>
a0803a1c:	00000000 	nop
a0803a20:	8fc40014 	lw	a0,20(s8)
a0803a24:	8fc50010 	lw	a1,16(s8)
a0803a28:	0c200a6a 	jal	a08029a8 <sys_move_cursor>
a0803a2c:	00000000 	nop
a0803a30:	3c02a080 	lui	v0,0xa080
a0803a34:	24444190 	addiu	a0,v0,16784
a0803a38:	3c02a080 	lui	v0,0xa080
a0803a3c:	244544f8 	addiu	a1,v0,17656
a0803a40:	0c200d8b 	jal	a080362c <printf>
a0803a44:	00000000 	nop
a0803a48:	8fc20010 	lw	v0,16(s8)
a0803a4c:	24420001 	addiu	v0,v0,1
a0803a50:	8fc40014 	lw	a0,20(s8)
a0803a54:	00402821 	move	a1,v0
a0803a58:	0c200a6a 	jal	a08029a8 <sys_move_cursor>
a0803a5c:	00000000 	nop
a0803a60:	3c02a080 	lui	v0,0xa080
a0803a64:	24444190 	addiu	a0,v0,16784
a0803a68:	3c02a080 	lui	v0,0xa080
a0803a6c:	24454510 	addiu	a1,v0,17680
a0803a70:	0c200d8b 	jal	a080362c <printf>
a0803a74:	00000000 	nop
a0803a78:	8fc20010 	lw	v0,16(s8)
a0803a7c:	24420002 	addiu	v0,v0,2
a0803a80:	8fc40014 	lw	a0,20(s8)
a0803a84:	00402821 	move	a1,v0
a0803a88:	0c200a6a 	jal	a08029a8 <sys_move_cursor>
a0803a8c:	00000000 	nop
a0803a90:	3c02a080 	lui	v0,0xa080
a0803a94:	24444190 	addiu	a0,v0,16784
a0803a98:	3c02a080 	lui	v0,0xa080
a0803a9c:	24454524 	addiu	a1,v0,17700
a0803aa0:	0c200d8b 	jal	a080362c <printf>
a0803aa4:	00000000 	nop
a0803aa8:	8fc20010 	lw	v0,16(s8)
a0803aac:	24420003 	addiu	v0,v0,3
a0803ab0:	8fc40014 	lw	a0,20(s8)
a0803ab4:	00402821 	move	a1,v0
a0803ab8:	0c200a6a 	jal	a08029a8 <sys_move_cursor>
a0803abc:	00000000 	nop
a0803ac0:	3c02a080 	lui	v0,0xa080
a0803ac4:	24444190 	addiu	a0,v0,16784
a0803ac8:	3c02a080 	lui	v0,0xa080
a0803acc:	24454538 	addiu	a1,v0,17720
a0803ad0:	0c200d8b 	jal	a080362c <printf>
a0803ad4:	00000000 	nop
a0803ad8:	8fc20014 	lw	v0,20(s8)
a0803adc:	2442ffff 	addiu	v0,v0,-1
a0803ae0:	afc20014 	sw	v0,20(s8)
a0803ae4:	8fc20014 	lw	v0,20(s8)
a0803ae8:	1c40ffcd 	bgtz	v0,a0803a20 <drawing_task2+0x28>
a0803aec:	00000000 	nop
a0803af0:	24040001 	li	a0,1
a0803af4:	8fc50010 	lw	a1,16(s8)
a0803af8:	0c200a6a 	jal	a08029a8 <sys_move_cursor>
a0803afc:	00000000 	nop
a0803b00:	3c02a080 	lui	v0,0xa080
a0803b04:	24444190 	addiu	a0,v0,16784
a0803b08:	3c02a080 	lui	v0,0xa080
a0803b0c:	244544e0 	addiu	a1,v0,17632
a0803b10:	0c200d8b 	jal	a080362c <printf>
a0803b14:	00000000 	nop
a0803b18:	8fc20010 	lw	v0,16(s8)
a0803b1c:	24420001 	addiu	v0,v0,1
a0803b20:	24040001 	li	a0,1
a0803b24:	00402821 	move	a1,v0
a0803b28:	0c200a6a 	jal	a08029a8 <sys_move_cursor>
a0803b2c:	00000000 	nop
a0803b30:	3c02a080 	lui	v0,0xa080
a0803b34:	24444190 	addiu	a0,v0,16784
a0803b38:	3c02a080 	lui	v0,0xa080
a0803b3c:	244544e0 	addiu	a1,v0,17632
a0803b40:	0c200d8b 	jal	a080362c <printf>
a0803b44:	00000000 	nop
a0803b48:	8fc20010 	lw	v0,16(s8)
a0803b4c:	24420002 	addiu	v0,v0,2
a0803b50:	24040001 	li	a0,1
a0803b54:	00402821 	move	a1,v0
a0803b58:	0c200a6a 	jal	a08029a8 <sys_move_cursor>
a0803b5c:	00000000 	nop
a0803b60:	3c02a080 	lui	v0,0xa080
a0803b64:	24444190 	addiu	a0,v0,16784
a0803b68:	3c02a080 	lui	v0,0xa080
a0803b6c:	244544e0 	addiu	a1,v0,17632
a0803b70:	0c200d8b 	jal	a080362c <printf>
a0803b74:	00000000 	nop
a0803b78:	8fc20010 	lw	v0,16(s8)
a0803b7c:	24420003 	addiu	v0,v0,3
a0803b80:	24040001 	li	a0,1
a0803b84:	00402821 	move	a1,v0
a0803b88:	0c200a6a 	jal	a08029a8 <sys_move_cursor>
a0803b8c:	00000000 	nop
a0803b90:	3c02a080 	lui	v0,0xa080
a0803b94:	24444190 	addiu	a0,v0,16784
a0803b98:	3c02a080 	lui	v0,0xa080
a0803b9c:	244544e0 	addiu	a1,v0,17632
a0803ba0:	0c200d8b 	jal	a080362c <printf>
a0803ba4:	00000000 	nop
a0803ba8:	08200e84 	j	a0803a10 <drawing_task2+0x18>
a0803bac:	00000000 	nop

a0803bb0 <lock_task1>:
a0803bb0:	27bdffe0 	addiu	sp,sp,-32
a0803bb4:	afbf001c 	sw	ra,28(sp)
a0803bb8:	afbe0018 	sw	s8,24(sp)
a0803bbc:	03a0f021 	move	s8,sp
a0803bc0:	24020003 	li	v0,3
a0803bc4:	afc20014 	sw	v0,20(s8)
a0803bc8:	3c02a080 	lui	v0,0xa080
a0803bcc:	8c4265a0 	lw	v0,26016(v0)
a0803bd0:	14400008 	bnez	v0,a0803bf4 <lock_task1+0x44>
a0803bd4:	00000000 	nop
a0803bd8:	3c02a080 	lui	v0,0xa080
a0803bdc:	24444634 	addiu	a0,v0,17972
a0803be0:	0c200a7c 	jal	a08029f0 <mutex_lock_init>
a0803be4:	00000000 	nop
a0803be8:	3c03a080 	lui	v1,0xa080
a0803bec:	24020001 	li	v0,1
a0803bf0:	ac6265a0 	sw	v0,26016(v1)
a0803bf4:	24040001 	li	a0,1
a0803bf8:	8fc50014 	lw	a1,20(s8)
a0803bfc:	0c200a6a 	jal	a08029a8 <sys_move_cursor>
a0803c00:	00000000 	nop
a0803c04:	3c02a080 	lui	v0,0xa080
a0803c08:	244441a0 	addiu	a0,v0,16800
a0803c0c:	3c02a080 	lui	v0,0xa080
a0803c10:	24454550 	addiu	a1,v0,17744
a0803c14:	0c200d8b 	jal	a080362c <printf>
a0803c18:	00000000 	nop
a0803c1c:	24040001 	li	a0,1
a0803c20:	8fc50014 	lw	a1,20(s8)
a0803c24:	0c200a6a 	jal	a08029a8 <sys_move_cursor>
a0803c28:	00000000 	nop
a0803c2c:	3c02a080 	lui	v0,0xa080
a0803c30:	244441a4 	addiu	a0,v0,16804
a0803c34:	0c200d8b 	jal	a080362c <printf>
a0803c38:	00000000 	nop
a0803c3c:	3c02a080 	lui	v0,0xa080
a0803c40:	24444634 	addiu	a0,v0,17972
a0803c44:	0c200a8e 	jal	a0802a38 <mutex_lock_acquire>
a0803c48:	00000000 	nop
a0803c4c:	afc00010 	sw	zero,16(s8)
a0803c50:	08200f22 	j	a0803c88 <lock_task1+0xd8>
a0803c54:	00000000 	nop
a0803c58:	24040001 	li	a0,1
a0803c5c:	8fc50014 	lw	a1,20(s8)
a0803c60:	0c200a6a 	jal	a08029a8 <sys_move_cursor>
a0803c64:	00000000 	nop
a0803c68:	3c02a080 	lui	v0,0xa080
a0803c6c:	244441c4 	addiu	a0,v0,16836
a0803c70:	8fc50010 	lw	a1,16(s8)
a0803c74:	0c200d8b 	jal	a080362c <printf>
a0803c78:	00000000 	nop
a0803c7c:	8fc20010 	lw	v0,16(s8)
a0803c80:	24420001 	addiu	v0,v0,1
a0803c84:	afc20010 	sw	v0,16(s8)
a0803c88:	8fc20010 	lw	v0,16(s8)
a0803c8c:	28420014 	slti	v0,v0,20
a0803c90:	1440fff1 	bnez	v0,a0803c58 <lock_task1+0xa8>
a0803c94:	00000000 	nop
a0803c98:	24040001 	li	a0,1
a0803c9c:	8fc50014 	lw	a1,20(s8)
a0803ca0:	0c200a6a 	jal	a08029a8 <sys_move_cursor>
a0803ca4:	00000000 	nop
a0803ca8:	3c02a080 	lui	v0,0xa080
a0803cac:	244441a0 	addiu	a0,v0,16800
a0803cb0:	3c02a080 	lui	v0,0xa080
a0803cb4:	24454550 	addiu	a1,v0,17744
a0803cb8:	0c200d8b 	jal	a080362c <printf>
a0803cbc:	00000000 	nop
a0803cc0:	24040001 	li	a0,1
a0803cc4:	8fc50014 	lw	a1,20(s8)
a0803cc8:	0c200a6a 	jal	a08029a8 <sys_move_cursor>
a0803ccc:	00000000 	nop
a0803cd0:	3c02a080 	lui	v0,0xa080
a0803cd4:	244441f4 	addiu	a0,v0,16884
a0803cd8:	0c200d8b 	jal	a080362c <printf>
a0803cdc:	00000000 	nop
a0803ce0:	3c02a080 	lui	v0,0xa080
a0803ce4:	24444634 	addiu	a0,v0,17972
a0803ce8:	0c200aa0 	jal	a0802a80 <mutex_lock_release>
a0803cec:	00000000 	nop
a0803cf0:	08200ef2 	j	a0803bc8 <lock_task1+0x18>
a0803cf4:	00000000 	nop

a0803cf8 <lock_task2>:
a0803cf8:	27bdffe0 	addiu	sp,sp,-32
a0803cfc:	afbf001c 	sw	ra,28(sp)
a0803d00:	afbe0018 	sw	s8,24(sp)
a0803d04:	03a0f021 	move	s8,sp
a0803d08:	24020004 	li	v0,4
a0803d0c:	afc20014 	sw	v0,20(s8)
a0803d10:	3c02a080 	lui	v0,0xa080
a0803d14:	8c4265a0 	lw	v0,26016(v0)
a0803d18:	14400008 	bnez	v0,a0803d3c <lock_task2+0x44>
a0803d1c:	00000000 	nop
a0803d20:	3c02a080 	lui	v0,0xa080
a0803d24:	24444634 	addiu	a0,v0,17972
a0803d28:	0c200a7c 	jal	a08029f0 <mutex_lock_init>
a0803d2c:	00000000 	nop
a0803d30:	3c03a080 	lui	v1,0xa080
a0803d34:	24020001 	li	v0,1
a0803d38:	ac6265a0 	sw	v0,26016(v1)
a0803d3c:	24040001 	li	a0,1
a0803d40:	8fc50014 	lw	a1,20(s8)
a0803d44:	0c200a6a 	jal	a08029a8 <sys_move_cursor>
a0803d48:	00000000 	nop
a0803d4c:	3c02a080 	lui	v0,0xa080
a0803d50:	244441a0 	addiu	a0,v0,16800
a0803d54:	3c02a080 	lui	v0,0xa080
a0803d58:	24454550 	addiu	a1,v0,17744
a0803d5c:	0c200d8b 	jal	a080362c <printf>
a0803d60:	00000000 	nop
a0803d64:	24040001 	li	a0,1
a0803d68:	8fc50014 	lw	a1,20(s8)
a0803d6c:	0c200a6a 	jal	a08029a8 <sys_move_cursor>
a0803d70:	00000000 	nop
a0803d74:	3c02a080 	lui	v0,0xa080
a0803d78:	244441a4 	addiu	a0,v0,16804
a0803d7c:	0c200d8b 	jal	a080362c <printf>
a0803d80:	00000000 	nop
a0803d84:	3c02a080 	lui	v0,0xa080
a0803d88:	24444634 	addiu	a0,v0,17972
a0803d8c:	0c200a8e 	jal	a0802a38 <mutex_lock_acquire>
a0803d90:	00000000 	nop
a0803d94:	afc00010 	sw	zero,16(s8)
a0803d98:	08200f74 	j	a0803dd0 <lock_task2+0xd8>
a0803d9c:	00000000 	nop
a0803da0:	24040001 	li	a0,1
a0803da4:	8fc50014 	lw	a1,20(s8)
a0803da8:	0c200a6a 	jal	a08029a8 <sys_move_cursor>
a0803dac:	00000000 	nop
a0803db0:	3c02a080 	lui	v0,0xa080
a0803db4:	244441c4 	addiu	a0,v0,16836
a0803db8:	8fc50010 	lw	a1,16(s8)
a0803dbc:	0c200d8b 	jal	a080362c <printf>
a0803dc0:	00000000 	nop
a0803dc4:	8fc20010 	lw	v0,16(s8)
a0803dc8:	24420001 	addiu	v0,v0,1
a0803dcc:	afc20010 	sw	v0,16(s8)
a0803dd0:	8fc20010 	lw	v0,16(s8)
a0803dd4:	28420014 	slti	v0,v0,20
a0803dd8:	1440fff1 	bnez	v0,a0803da0 <lock_task2+0xa8>
a0803ddc:	00000000 	nop
a0803de0:	24040001 	li	a0,1
a0803de4:	8fc50014 	lw	a1,20(s8)
a0803de8:	0c200a6a 	jal	a08029a8 <sys_move_cursor>
a0803dec:	00000000 	nop
a0803df0:	3c02a080 	lui	v0,0xa080
a0803df4:	244441a0 	addiu	a0,v0,16800
a0803df8:	3c02a080 	lui	v0,0xa080
a0803dfc:	24454550 	addiu	a1,v0,17744
a0803e00:	0c200d8b 	jal	a080362c <printf>
a0803e04:	00000000 	nop
a0803e08:	24040001 	li	a0,1
a0803e0c:	8fc50014 	lw	a1,20(s8)
a0803e10:	0c200a6a 	jal	a08029a8 <sys_move_cursor>
a0803e14:	00000000 	nop
a0803e18:	3c02a080 	lui	v0,0xa080
a0803e1c:	244441f4 	addiu	a0,v0,16884
a0803e20:	0c200d8b 	jal	a080362c <printf>
a0803e24:	00000000 	nop
a0803e28:	3c02a080 	lui	v0,0xa080
a0803e2c:	24444634 	addiu	a0,v0,17972
a0803e30:	0c200aa0 	jal	a0802a80 <mutex_lock_release>
a0803e34:	00000000 	nop
a0803e38:	08200f44 	j	a0803d10 <lock_task2+0x18>
a0803e3c:	00000000 	nop

a0803e40 <sleep_task>:
a0803e40:	27bdffd8 	addiu	sp,sp,-40
a0803e44:	afbf0024 	sw	ra,36(sp)
a0803e48:	afbe0020 	sw	s8,32(sp)
a0803e4c:	03a0f021 	move	s8,sp
a0803e50:	24020005 	li	v0,5
a0803e54:	afc20014 	sw	v0,20(s8)
a0803e58:	24020005 	li	v0,5
a0803e5c:	afc20010 	sw	v0,16(s8)
a0803e60:	afc00018 	sw	zero,24(s8)
a0803e64:	08200fa7 	j	a0803e9c <sleep_task+0x5c>
a0803e68:	00000000 	nop
a0803e6c:	24040001 	li	a0,1
a0803e70:	8fc50014 	lw	a1,20(s8)
a0803e74:	0c200a6a 	jal	a08029a8 <sys_move_cursor>
a0803e78:	00000000 	nop
a0803e7c:	3c02a080 	lui	v0,0xa080
a0803e80:	24444220 	addiu	a0,v0,16928
a0803e84:	8fc50018 	lw	a1,24(s8)
a0803e88:	0c200d8b 	jal	a080362c <printf>
a0803e8c:	00000000 	nop
a0803e90:	8fc20018 	lw	v0,24(s8)
a0803e94:	24420001 	addiu	v0,v0,1
a0803e98:	afc20018 	sw	v0,24(s8)
a0803e9c:	8fc20018 	lw	v0,24(s8)
a0803ea0:	28420014 	slti	v0,v0,20
a0803ea4:	1440fff1 	bnez	v0,a0803e6c <sleep_task+0x2c>
a0803ea8:	00000000 	nop
a0803eac:	24040001 	li	a0,1
a0803eb0:	8fc50014 	lw	a1,20(s8)
a0803eb4:	0c200a6a 	jal	a08029a8 <sys_move_cursor>
a0803eb8:	00000000 	nop
a0803ebc:	3c02a080 	lui	v0,0xa080
a0803ec0:	24444250 	addiu	a0,v0,16976
a0803ec4:	8fc50010 	lw	a1,16(s8)
a0803ec8:	0c200d8b 	jal	a080362c <printf>
a0803ecc:	00000000 	nop
a0803ed0:	8fc20010 	lw	v0,16(s8)
a0803ed4:	00402021 	move	a0,v0
a0803ed8:	0c200a00 	jal	a0802800 <sys_sleep>
a0803edc:	00000000 	nop
a0803ee0:	24040001 	li	a0,1
a0803ee4:	8fc50014 	lw	a1,20(s8)
a0803ee8:	0c200a6a 	jal	a08029a8 <sys_move_cursor>
a0803eec:	00000000 	nop
a0803ef0:	3c02a080 	lui	v0,0xa080
a0803ef4:	24444284 	addiu	a0,v0,17028
a0803ef8:	3c02a080 	lui	v0,0xa080
a0803efc:	24454580 	addiu	a1,v0,17792
a0803f00:	0c200d8b 	jal	a080362c <printf>
a0803f04:	00000000 	nop
a0803f08:	08200f98 	j	a0803e60 <sleep_task+0x20>
a0803f0c:	00000000 	nop

a0803f10 <timer_task>:
a0803f10:	27bdffd8 	addiu	sp,sp,-40
a0803f14:	afbf0024 	sw	ra,36(sp)
a0803f18:	afbe0020 	sw	s8,32(sp)
a0803f1c:	03a0f021 	move	s8,sp
a0803f20:	afc00018 	sw	zero,24(s8)
a0803f24:	24020006 	li	v0,6
a0803f28:	afc20014 	sw	v0,20(s8)
a0803f2c:	0c200986 	jal	a0802618 <get_timer>
a0803f30:	00000000 	nop
a0803f34:	afc20010 	sw	v0,16(s8)
a0803f38:	24040001 	li	a0,1
a0803f3c:	8fc50014 	lw	a1,20(s8)
a0803f40:	0c200a6a 	jal	a08029a8 <sys_move_cursor>
a0803f44:	00000000 	nop
a0803f48:	3c02a080 	lui	v0,0xa080
a0803f4c:	8c436590 	lw	v1,26000(v0)
a0803f50:	3c02a080 	lui	v0,0xa080
a0803f54:	24444290 	addiu	a0,v0,17040
a0803f58:	8fc50010 	lw	a1,16(s8)
a0803f5c:	00603021 	move	a2,v1
a0803f60:	0c200d8b 	jal	a080362c <printf>
a0803f64:	00000000 	nop
a0803f68:	08200fcb 	j	a0803f2c <timer_task+0x1c>
a0803f6c:	00000000 	nop
a0803f70:	255b6325 	addiu	k1,t2,25381
a0803f74:	64253b64 	daddiu	a1,at,15204
a0803f78:	00000048 	0x48
a0803f7c:	325b6325 	andi	k1,s2,0x6325
a0803f80:	0000004a 	0x4a
a0803f84:	3f5b6325 	0x3f5b6325
a0803f88:	006c3532 	tlt	v1,t4,0xd4
a0803f8c:	00000000 	nop
a0803f90:	6c6c6548 	ldr	t4,25928(v1)
a0803f94:	534f206f 	beql	k0,t7,a080c154 <__bbs_end+0x4424>
a0803f98:	00000a21 	0xa21
a0803f9c:	495b203e 	0x495b203e
a0803fa0:	5d54494e 	0x5d54494e
a0803fa4:	746e4920 	jalx	a1b92480 <_gp+0x1385e80>
a0803fa8:	75727265 	jalx	a5c9c994 <_gp+0x5490394>
a0803fac:	70207470 	0x70207470
a0803fb0:	65636f72 	daddiu	v1,t3,28530
a0803fb4:	6e697373 	ldr	t1,29555(s3)
a0803fb8:	6e692067 	ldr	t1,8295(s3)
a0803fbc:	61697469 	daddi	t1,t3,29801
a0803fc0:	617a696c 	daddi	k0,t3,26988
a0803fc4:	6e6f6974 	ldr	t7,26996(s3)
a0803fc8:	63757320 	daddi	s5,k1,29472
a0803fcc:	64656563 	daddiu	a1,v1,25955
a0803fd0:	0a2e6465 	j	a8b99194 <_gp+0x838cb94>
a0803fd4:	00000000 	nop
a0803fd8:	495b203e 	0x495b203e
a0803fdc:	5d54494e 	0x5d54494e
a0803fe0:	73795320 	0x73795320
a0803fe4:	206d6574 	addi	t5,v1,25972
a0803fe8:	6c6c6163 	ldr	t4,24931(v1)
a0803fec:	696e6920 	ldl	t6,26912(t3)
a0803ff0:	6c616974 	ldr	at,26996(v1)
a0803ff4:	64657a69 	daddiu	a1,v1,31337
a0803ff8:	63757320 	daddi	s5,k1,29472
a0803ffc:	73736563 	0x73736563
a0804000:	6c6c7566 	ldr	t4,30054(v1)
a0804004:	000a2e79 	0xa2e79
a0804008:	495b203e 	0x495b203e
a080400c:	5d54494e 	0x5d54494e
a0804010:	42435020 	c0	0x435020
a0804014:	696e6920 	ldl	t6,26912(t3)
a0804018:	6c616974 	ldr	at,26996(v1)
a080401c:	74617a69 	jalx	a185e9a4 <_gp+0x10523a4>
a0804020:	206e6f69 	addi	t6,v1,28521
a0804024:	63637573 	daddi	v1,k1,30067
a0804028:	65646565 	daddiu	a0,t3,25957
a080402c:	000a2e64 	0xa2e64
a0804030:	495b203e 	0x495b203e
a0804034:	5d54494e 	0x5d54494e
a0804038:	52435320 	beql	s2,v1,a0818cbc <_gp+0xc6bc>
a080403c:	204e4545 	addi	t6,v0,17733
a0804040:	74696e69 	jalx	a1a5b9a4 <_gp+0x124f3a4>
a0804044:	696c6169 	ldl	t4,24937(t3)
a0804048:	6974617a 	ldl	s4,24954(t3)
a080404c:	73206e6f 	0x73206e6f
a0804050:	65636375 	daddiu	v1,t3,25461
a0804054:	64656465 	daddiu	a1,v1,25701
a0804058:	00000a2e 	0xa2e
a080405c:	00000000 	nop
a0804060:	4f525245 	c3	0x1525245
a0804064:	6e692052 	ldr	t1,8274(s3)
a0804068:	746e6920 	jalx	a1b9a480 <_gp+0x138de80>
a080406c:	75727265 	jalx	a5c9c994 <_gp+0x5490394>
a0804070:	685f7470 	ldl	ra,29808(v0)
a0804074:	65706c65 	daddiu	s0,t3,27749
a0804078:	00000072 	tlt	zero,zero,0x1
a080407c:	00000000 	nop
a0804080:	00006425 	0x6425
	...
a0804090:	a08027e8 	sb	zero,10216(a0)
a0804094:	a08027e8 	sb	zero,10216(a0)
a0804098:	a0802700 	sb	zero,9984(a0)
a080409c:	a08027e8 	sb	zero,10216(a0)
a08040a0:	a08027e8 	sb	zero,10216(a0)
a08040a4:	a08027e8 	sb	zero,10216(a0)
a08040a8:	a08027e8 	sb	zero,10216(a0)
a08040ac:	a08027e8 	sb	zero,10216(a0)
a08040b0:	a08027e8 	sb	zero,10216(a0)
a08040b4:	a08027e8 	sb	zero,10216(a0)
a08040b8:	a0802718 	sb	zero,10008(a0)
a08040bc:	a0802730 	sb	zero,10032(a0)
a08040c0:	a0802748 	sb	zero,10056(a0)
a08040c4:	a08027e8 	sb	zero,10216(a0)
a08040c8:	a08027e8 	sb	zero,10216(a0)
a08040cc:	a08027e8 	sb	zero,10216(a0)
a08040d0:	a08027e8 	sb	zero,10216(a0)
a08040d4:	a08027e8 	sb	zero,10216(a0)
a08040d8:	a08027e8 	sb	zero,10216(a0)
a08040dc:	a08027e8 	sb	zero,10216(a0)
a08040e0:	a0802760 	sb	zero,10080(a0)
a08040e4:	a08027e8 	sb	zero,10216(a0)
a08040e8:	a0802780 	sb	zero,10112(a0)
a08040ec:	a0802798 	sb	zero,10136(a0)
a08040f0:	a08027e8 	sb	zero,10216(a0)
a08040f4:	a08027e8 	sb	zero,10216(a0)
a08040f8:	a08027e8 	sb	zero,10216(a0)
a08040fc:	a08027e8 	sb	zero,10216(a0)
a0804100:	a08027e8 	sb	zero,10216(a0)
a0804104:	a08027e8 	sb	zero,10216(a0)
a0804108:	a08027a8 	sb	zero,10152(a0)
a080410c:	a08027c0 	sb	zero,10176(a0)
a0804110:	a08027d8 	sb	zero,10200(a0)
	...
a0804120:	545b203e 	bnel	v0,k1,a080c21c <__bbs_end+0x44ec>
a0804124:	5d4b5341 	0x5d4b5341
a0804128:	69685420 	ldl	t0,21536(t3)
a080412c:	61742073 	daddi	s4,t3,8307
a0804130:	69206b73 	ldl	zero,27507(t1)
a0804134:	6f742073 	ldr	s4,8307(k1)
a0804138:	73657420 	0x73657420
a080413c:	63732074 	daddi	s3,k1,8308
a0804140:	75646568 	jalx	a59195a0 <_gp+0x510cfa0>
a0804144:	2e72656c 	sltiu	s2,s3,25964
a0804148:	64252820 	daddiu	a1,at,10272
a080414c:	00000029 	0x29
a0804150:	00007325 	0x7325
	...
a0804160:	545b203e 	bnel	v0,k1,a080c25c <__bbs_end+0x452c>
a0804164:	5d4b5341 	0x5d4b5341
a0804168:	69685420 	ldl	t0,21536(t3)
a080416c:	61742073 	daddi	s4,t3,8307
a0804170:	69206b73 	ldl	zero,27507(t1)
a0804174:	6f742073 	ldr	s4,8307(k1)
a0804178:	73657420 	0x73657420
a080417c:	63732074 	daddi	s3,k1,8308
a0804180:	75646568 	jalx	a59195a0 <_gp+0x510cfa0>
a0804184:	2e72656c 	sltiu	s2,s3,25964
a0804188:	64252820 	daddiu	a1,at,10272
a080418c:	00000029 	0x29
a0804190:	00007325 	0x7325
	...
a08041a0:	00007325 	0x7325
a08041a4:	545b203e 	bnel	v0,k1,a080c2a0 <__bbs_end+0x4570>
a08041a8:	5d4b5341 	0x5d4b5341
a08041ac:	70704120 	0x70704120
a08041b0:	6e69796c 	ldr	t1,31084(s3)
a08041b4:	6f662067 	ldr	a2,8295(k1)
a08041b8:	20612072 	addi	at,v1,8306
a08041bc:	6b636f6c 	ldl	v1,28524(k1)
a08041c0:	00000a2e 	0xa2e
a08041c4:	545b203e 	bnel	v0,k1,a080c2c0 <__bbs_end+0x4590>
a08041c8:	5d4b5341 	0x5d4b5341
a08041cc:	73614820 	0x73614820
a08041d0:	71636120 	0x71636120
a08041d4:	65726975 	daddiu	s2,t3,26997
a08041d8:	6f6c2064 	ldr	t4,8292(k1)
a08041dc:	61206b63 	daddi	zero,t1,27491
a08041e0:	7220646e 	0x7220646e
a08041e4:	696e6e75 	ldl	t6,28277(t3)
a08041e8:	282e676e 	slti	t6,at,26478
a08041ec:	0a296425 	j	a8a59094 <_gp+0x824ca94>
a08041f0:	00000000 	nop
a08041f4:	545b203e 	bnel	v0,k1,a080c2f0 <__bbs_end+0x45c0>
a08041f8:	5d4b5341 	0x5d4b5341
a08041fc:	73614820 	0x73614820
a0804200:	71636120 	0x71636120
a0804204:	65726975 	daddiu	s2,t3,26997
a0804208:	6f6c2064 	ldr	t4,8292(k1)
a080420c:	61206b63 	daddi	zero,t1,27491
a0804210:	6520646e 	daddiu	zero,t1,25710
a0804214:	65746978 	daddiu	s4,t3,27000
a0804218:	000a2e64 	0xa2e64
a080421c:	00000000 	nop
a0804220:	545b203e 	bnel	v0,k1,a080c31c <__bbs_end+0x45ec>
a0804224:	5d4b5341 	0x5d4b5341
a0804228:	69685420 	ldl	t0,21536(t3)
a080422c:	61742073 	daddi	s4,t3,8307
a0804230:	69206b73 	ldl	zero,27507(t1)
a0804234:	6f742073 	ldr	s4,8307(k1)
a0804238:	73657420 	0x73657420
a080423c:	6c732074 	ldr	s3,8308(v1)
a0804240:	28706565 	slti	s0,v1,25957
a0804244:	28202e29 	slti	zero,at,11817
a0804248:	0a296425 	j	a8a59094 <_gp+0x824ca94>
a080424c:	00000000 	nop
a0804250:	545b203e 	bnel	v0,k1,a080c34c <__bbs_end+0x461c>
a0804254:	5d4b5341 	0x5d4b5341
a0804258:	69685420 	ldl	t0,21536(t3)
a080425c:	61742073 	daddi	s4,t3,8307
a0804260:	69206b73 	ldl	zero,27507(t1)
a0804264:	6c732073 	ldr	s3,8307(v1)
a0804268:	69706565 	ldl	s0,25957(t3)
a080426c:	202c676e 	addi	t4,at,26478
a0804270:	65656c73 	daddiu	a1,t3,27763
a0804274:	69742070 	ldl	s4,8304(t3)
a0804278:	6920656d 	ldl	zero,25965(t1)
a080427c:	64252073 	daddiu	a1,at,8307
a0804280:	00000a2e 	0xa2e
a0804284:	00007325 	0x7325
	...
a0804290:	545b203e 	bnel	v0,k1,a080c38c <__bbs_end+0x465c>
a0804294:	5d4b5341 	0x5d4b5341
a0804298:	69685420 	ldl	t0,21536(t3)
a080429c:	73692073 	0x73692073
a08042a0:	74206120 	jalx	a0818480 <_gp+0xbe80>
a08042a4:	61657268 	daddi	a1,t3,29288
a08042a8:	6f742064 	ldr	s4,8292(k1)
a08042ac:	6d697420 	ldr	t1,29728(t3)
a08042b0:	21676e69 	addi	a3,t3,28265
a08042b4:	75252820 	jalx	a494a080 <_gp+0x413da80>
a08042b8:	2075252f 	addi	s5,v1,9519
a08042bc:	6f636573 	ldr	v1,25971(k1)
a08042c0:	2973646e 	slti	s3,t3,25710
a08042c4:	00000a2e 	0xa2e
	...
a08042d0:	fffffffe 	sd	ra,-2(ra)
	...
